ccopy_reg
_reconstructor
p0
(c__main__
volunter_motion
p1
c__builtin__
object
p2
Ntp3
Rp4
(dp5
S'save_file'
p6
S'volunter_motuion1.pkl'
p7
sS'image_path'
p8
S'/home/chen/Documents/GNN_hand_research/data_generate/analysis_image'
p9
sS'pose_name'
p10
(lp11
S'/home/chen/Documents/.git/Mocap_SIG18_Data/training_data/User5/capture2/sequence.38_training_dense_left.trc'
p12
aS'/home/chen/Documents/.git/Mocap_SIG18_Data/training_data/User5/capture2/sequence.36_training_dense_left.trc'
p13
aS'/home/chen/Documents/.git/Mocap_SIG18_Data/training_data/User5/capture2/sequence.4_training_dense_right.trc'
p14
aS'/home/chen/Documents/.git/Mocap_SIG18_Data/training_data/User5/capture2/sequence.36_training_dense_right.trc'
p15
aS'/home/chen/Documents/.git/Mocap_SIG18_Data/training_data/User5/capture2/sequence.30_training_dense_left.trc'
p16
aS'/home/chen/Documents/.git/Mocap_SIG18_Data/training_data/User5/capture2/sequence.32_training_dense_right.trc'
p17
aS'/home/chen/Documents/.git/Mocap_SIG18_Data/training_data/User5/capture2/sequence.33_training_dense_left.trc'
p18
aS'/home/chen/Documents/.git/Mocap_SIG18_Data/training_data/User5/capture2/sequence.29_training_dense_right.trc'
p19
aS'/home/chen/Documents/.git/Mocap_SIG18_Data/training_data/User5/capture2/sequence.3_training_dense_right.trc'
p20
aS'/home/chen/Documents/.git/Mocap_SIG18_Data/training_data/User5/capture2/sequence.1_training_dense_right.trc'
p21
aS'/home/chen/Documents/.git/Mocap_SIG18_Data/training_data/User5/capture2/sequence.33_training_dense_right.trc'
p22
aS'/home/chen/Documents/.git/Mocap_SIG18_Data/training_data/User5/capture2/sequence.18_training_dense_right.trc'
p23
aS'/home/chen/Documents/.git/Mocap_SIG18_Data/training_data/User5/capture2/sequence.22_training_dense_left.trc'
p24
aS'/home/chen/Documents/.git/Mocap_SIG18_Data/training_data/User5/capture2/sequence.13_training_dense_right.trc'
p25
aS'/home/chen/Documents/.git/Mocap_SIG18_Data/training_data/User5/capture2/sequence.13_training_dense_left.trc'
p26
aS'/home/chen/Documents/.git/Mocap_SIG18_Data/training_data/User5/capture2/sequence.23_training_dense_right.trc'
p27
aS'/home/chen/Documents/.git/Mocap_SIG18_Data/training_data/User5/capture2/sequence.7_training_dense_left.trc'
p28
aS'/home/chen/Documents/.git/Mocap_SIG18_Data/training_data/User5/capture2/sequence.11_training_dense_left.trc'
p29
aS'/home/chen/Documents/.git/Mocap_SIG18_Data/training_data/User5/capture2/sequence.9_training_dense_right.trc'
p30
aS'/home/chen/Documents/.git/Mocap_SIG18_Data/training_data/User5/capture2/sequence.20_training_dense_left.trc'
p31
aS'/home/chen/Documents/.git/Mocap_SIG18_Data/training_data/User5/capture2/sequence.8_training_dense_right.trc'
p32
aS'/home/chen/Documents/.git/Mocap_SIG18_Data/training_data/User5/capture2/sequence.15_training_dense_left.trc'
p33
aS'/home/chen/Documents/.git/Mocap_SIG18_Data/training_data/User5/capture2/sequence.18_training_dense_left.trc'
p34
aS'/home/chen/Documents/.git/Mocap_SIG18_Data/training_data/User5/capture2/sequence.40_training_dense_right.trc'
p35
aS'/home/chen/Documents/.git/Mocap_SIG18_Data/training_data/User5/capture2/sequence.2_training_dense_left.trc'
p36
aS'/home/chen/Documents/.git/Mocap_SIG18_Data/training_data/User5/capture2/sequence.37_training_dense_left.trc'
p37
aS'/home/chen/Documents/.git/Mocap_SIG18_Data/training_data/User5/capture2/sequence.6_training_dense_left.trc'
p38
aS'/home/chen/Documents/.git/Mocap_SIG18_Data/training_data/User5/capture2/sequence.28_training_dense_left.trc'
p39
aS'/home/chen/Documents/.git/Mocap_SIG18_Data/training_data/User5/capture2/sequence.25_training_dense_right.trc'
p40
aS'/home/chen/Documents/.git/Mocap_SIG18_Data/training_data/User5/capture2/sequence.39_training_dense_left.trc'
p41
aS'/home/chen/Documents/.git/Mocap_SIG18_Data/training_data/User5/capture2/sequence.12_training_dense_right.trc'
p42
aS'/home/chen/Documents/.git/Mocap_SIG18_Data/training_data/User5/capture2/sequence.38_training_dense_right.trc'
p43
aS'/home/chen/Documents/.git/Mocap_SIG18_Data/training_data/User5/capture2/sequence.27_training_dense_left.trc'
p44
aS'/home/chen/Documents/.git/Mocap_SIG18_Data/training_data/User5/capture2/sequence.8_training_dense_left.trc'
p45
aS'/home/chen/Documents/.git/Mocap_SIG18_Data/training_data/User5/capture2/sequence.39_training_dense_right.trc'
p46
aS'/home/chen/Documents/.git/Mocap_SIG18_Data/training_data/User5/capture2/sequence.30_training_dense_right.trc'
p47
aS'/home/chen/Documents/.git/Mocap_SIG18_Data/training_data/User5/capture2/sequence.5_training_dense_left.trc'
p48
aS'/home/chen/Documents/.git/Mocap_SIG18_Data/training_data/User5/capture2/sequence.11_training_dense_right.trc'
p49
aS'/home/chen/Documents/.git/Mocap_SIG18_Data/training_data/User5/capture2/sequence.7_training_dense_right.trc'
p50
aS'/home/chen/Documents/.git/Mocap_SIG18_Data/training_data/User5/capture2/sequence.21_training_dense_left.trc'
p51
aS'/home/chen/Documents/.git/Mocap_SIG18_Data/training_data/User5/capture2/sequence.5_training_dense_right.trc'
p52
aS'/home/chen/Documents/.git/Mocap_SIG18_Data/training_data/User5/capture2/sequence.14_training_dense_right.trc'
p53
aS'/home/chen/Documents/.git/Mocap_SIG18_Data/training_data/User5/capture2/sequence.25_training_dense_left.trc'
p54
aS'/home/chen/Documents/.git/Mocap_SIG18_Data/training_data/User5/capture2/sequence.40_training_dense_left.trc'
p55
aS'/home/chen/Documents/.git/Mocap_SIG18_Data/training_data/User5/capture2/sequence.10_training_dense_left.trc'
p56
aS'/home/chen/Documents/.git/Mocap_SIG18_Data/training_data/User5/capture2/sequence.15_training_dense_right.trc'
p57
aS'/home/chen/Documents/.git/Mocap_SIG18_Data/training_data/User5/capture2/sequence.26_training_dense_right.trc'
p58
aS'/home/chen/Documents/.git/Mocap_SIG18_Data/training_data/User5/capture2/sequence.37_training_dense_right.trc'
p59
aS'/home/chen/Documents/.git/Mocap_SIG18_Data/training_data/User5/capture2/sequence.29_training_dense_left.trc'
p60
aS'/home/chen/Documents/.git/Mocap_SIG18_Data/training_data/User5/capture2/sequence.35_training_dense_left.trc'
p61
aS'/home/chen/Documents/.git/Mocap_SIG18_Data/training_data/User5/capture2/sequence.6_training_dense_right.trc'
p62
aS'/home/chen/Documents/.git/Mocap_SIG18_Data/training_data/User5/capture2/sequence.10_training_dense_right.trc'
p63
aS'/home/chen/Documents/.git/Mocap_SIG18_Data/training_data/User5/capture2/sequence.27_training_dense_right.trc'
p64
aS'/home/chen/Documents/.git/Mocap_SIG18_Data/training_data/User5/capture2/sequence.32_training_dense_left.trc'
p65
aS'/home/chen/Documents/.git/Mocap_SIG18_Data/training_data/User5/capture2/sequence.12_training_dense_left.trc'
p66
aS'/home/chen/Documents/.git/Mocap_SIG18_Data/training_data/User5/capture2/sequence.21_training_dense_right.trc'
p67
aS'/home/chen/Documents/.git/Mocap_SIG18_Data/training_data/User5/capture2/sequence.35_training_dense_right.trc'
p68
aS'/home/chen/Documents/.git/Mocap_SIG18_Data/training_data/User5/capture2/sequence.17_training_dense_left.trc'
p69
aS'/home/chen/Documents/.git/Mocap_SIG18_Data/training_data/User5/capture2/sequence.26_training_dense_left.trc'
p70
aS'/home/chen/Documents/.git/Mocap_SIG18_Data/training_data/User5/capture2/sequence.9_training_dense_left.trc'
p71
aS'/home/chen/Documents/.git/Mocap_SIG18_Data/training_data/User5/capture2/sequence.23_training_dense_left.trc'
p72
aS'/home/chen/Documents/.git/Mocap_SIG18_Data/training_data/User5/capture2/sequence.4_training_dense_left.trc'
p73
aS'/home/chen/Documents/.git/Mocap_SIG18_Data/training_data/User5/capture2/sequence.14_training_dense_left.trc'
p74
aS'/home/chen/Documents/.git/Mocap_SIG18_Data/training_data/User5/capture2/sequence.19_training_dense_left.trc'
p75
aS'/home/chen/Documents/.git/Mocap_SIG18_Data/training_data/User5/capture2/sequence.28_training_dense_right.trc'
p76
aS'/home/chen/Documents/.git/Mocap_SIG18_Data/training_data/User5/capture2/sequence.19_training_dense_right.trc'
p77
aS'/home/chen/Documents/.git/Mocap_SIG18_Data/training_data/User5/capture2/sequence.17_training_dense_right.trc'
p78
aS'/home/chen/Documents/.git/Mocap_SIG18_Data/training_data/User5/capture2/sequence.2_training_dense_right.trc'
p79
aS'/home/chen/Documents/.git/Mocap_SIG18_Data/training_data/User5/capture2/sequence.22_training_dense_right.trc'
p80
aS'/home/chen/Documents/.git/Mocap_SIG18_Data/training_data/User5/capture2/sequence.20_training_dense_right.trc'
p81
aS'/home/chen/Documents/.git/Mocap_SIG18_Data/training_data/User5/capture2/sequence.3_training_dense_left.trc'
p82
aS'/home/chen/Documents/.git/Mocap_SIG18_Data/training_data/User5/capture2/sequence.1_training_dense_left.trc'
p83
aS'/home/chen/Documents/.git/Mocap_SIG18_Data/training_data/User5/capture1/sequence.38_training_dense_left.trc'
p84
aS'/home/chen/Documents/.git/Mocap_SIG18_Data/training_data/User5/capture1/sequence.36_training_dense_left.trc'
p85
aS'/home/chen/Documents/.git/Mocap_SIG18_Data/training_data/User5/capture1/sequence.4_training_dense_right.trc'
p86
aS'/home/chen/Documents/.git/Mocap_SIG18_Data/training_data/User5/capture1/sequence.36_training_dense_right.trc'
p87
aS'/home/chen/Documents/.git/Mocap_SIG18_Data/training_data/User5/capture1/sequence.44_training_dense_left.trc'
p88
aS'/home/chen/Documents/.git/Mocap_SIG18_Data/training_data/User5/capture1/sequence.30_training_dense_left.trc'
p89
aS'/home/chen/Documents/.git/Mocap_SIG18_Data/training_data/User5/capture1/sequence.32_training_dense_right.trc'
p90
aS'/home/chen/Documents/.git/Mocap_SIG18_Data/training_data/User5/capture1/sequence.31_training_dense_left.trc'
p91
aS'/home/chen/Documents/.git/Mocap_SIG18_Data/training_data/User5/capture1/sequence.33_training_dense_left.trc'
p92
aS'/home/chen/Documents/.git/Mocap_SIG18_Data/training_data/User5/capture1/sequence.29_training_dense_right.trc'
p93
aS'/home/chen/Documents/.git/Mocap_SIG18_Data/training_data/User5/capture1/sequence.16_training_dense_left.trc'
p94
aS'/home/chen/Documents/.git/Mocap_SIG18_Data/training_data/User5/capture1/sequence.3_training_dense_right.trc'
p95
aS'/home/chen/Documents/.git/Mocap_SIG18_Data/training_data/User5/capture1/sequence.1_training_dense_right.trc'
p96
aS'/home/chen/Documents/.git/Mocap_SIG18_Data/training_data/User5/capture1/sequence.33_training_dense_right.trc'
p97
aS'/home/chen/Documents/.git/Mocap_SIG18_Data/training_data/User5/capture1/sequence.18_training_dense_right.trc'
p98
aS'/home/chen/Documents/.git/Mocap_SIG18_Data/training_data/User5/capture1/sequence.13_training_dense_right.trc'
p99
aS'/home/chen/Documents/.git/Mocap_SIG18_Data/training_data/User5/capture1/sequence.13_training_dense_left.trc'
p100
aS'/home/chen/Documents/.git/Mocap_SIG18_Data/training_data/User5/capture1/sequence.7_training_dense_left.trc'
p101
aS'/home/chen/Documents/.git/Mocap_SIG18_Data/training_data/User5/capture1/sequence.24_training_dense_left.trc'
p102
aS'/home/chen/Documents/.git/Mocap_SIG18_Data/training_data/User5/capture1/sequence.31_training_dense_right.trc'
p103
aS'/home/chen/Documents/.git/Mocap_SIG18_Data/training_data/User5/capture1/sequence.11_training_dense_left.trc'
p104
aS'/home/chen/Documents/.git/Mocap_SIG18_Data/training_data/User5/capture1/sequence.9_training_dense_right.trc'
p105
aS'/home/chen/Documents/.git/Mocap_SIG18_Data/training_data/User5/capture1/sequence.8_training_dense_right.trc'
p106
aS'/home/chen/Documents/.git/Mocap_SIG18_Data/training_data/User5/capture1/sequence.15_training_dense_left.trc'
p107
aS'/home/chen/Documents/.git/Mocap_SIG18_Data/training_data/User5/capture1/sequence.18_training_dense_left.trc'
p108
aS'/home/chen/Documents/.git/Mocap_SIG18_Data/training_data/User5/capture1/sequence.40_training_dense_right.trc'
p109
aS'/home/chen/Documents/.git/Mocap_SIG18_Data/training_data/User5/capture1/sequence.2_training_dense_left.trc'
p110
aS'/home/chen/Documents/.git/Mocap_SIG18_Data/training_data/User5/capture1/sequence.37_training_dense_left.trc'
p111
aS'/home/chen/Documents/.git/Mocap_SIG18_Data/training_data/User5/capture1/sequence.6_training_dense_left.trc'
p112
aS'/home/chen/Documents/.git/Mocap_SIG18_Data/training_data/User5/capture1/sequence.16_training_dense_right.trc'
p113
aS'/home/chen/Documents/.git/Mocap_SIG18_Data/training_data/User5/capture1/sequence.28_training_dense_left.trc'
p114
aS'/home/chen/Documents/.git/Mocap_SIG18_Data/training_data/User5/capture1/sequence.25_training_dense_right.trc'
p115
aS'/home/chen/Documents/.git/Mocap_SIG18_Data/training_data/User5/capture1/sequence.39_training_dense_left.trc'
p116
aS'/home/chen/Documents/.git/Mocap_SIG18_Data/training_data/User5/capture1/sequence.45_training_dense_right.trc'
p117
aS'/home/chen/Documents/.git/Mocap_SIG18_Data/training_data/User5/capture1/sequence.42_training_dense_right.trc'
p118
aS'/home/chen/Documents/.git/Mocap_SIG18_Data/training_data/User5/capture1/sequence.12_training_dense_right.trc'
p119
aS'/home/chen/Documents/.git/Mocap_SIG18_Data/training_data/User5/capture1/sequence.38_training_dense_right.trc'
p120
aS'/home/chen/Documents/.git/Mocap_SIG18_Data/training_data/User5/capture1/sequence.34_training_dense_right.trc'
p121
aS'/home/chen/Documents/.git/Mocap_SIG18_Data/training_data/User5/capture1/sequence.27_training_dense_left.trc'
p122
aS'/home/chen/Documents/.git/Mocap_SIG18_Data/training_data/User5/capture1/sequence.8_training_dense_left.trc'
p123
aS'/home/chen/Documents/.git/Mocap_SIG18_Data/training_data/User5/capture1/sequence.39_training_dense_right.trc'
p124
aS'/home/chen/Documents/.git/Mocap_SIG18_Data/training_data/User5/capture1/sequence.30_training_dense_right.trc'
p125
aS'/home/chen/Documents/.git/Mocap_SIG18_Data/training_data/User5/capture1/sequence.44_training_dense_right.trc'
p126
aS'/home/chen/Documents/.git/Mocap_SIG18_Data/training_data/User5/capture1/sequence.5_training_dense_left.trc'
p127
aS'/home/chen/Documents/.git/Mocap_SIG18_Data/training_data/User5/capture1/sequence.45_training_dense_left.trc'
p128
aS'/home/chen/Documents/.git/Mocap_SIG18_Data/training_data/User5/capture1/sequence.43_training_dense_left.trc'
p129
aS'/home/chen/Documents/.git/Mocap_SIG18_Data/training_data/User5/capture1/sequence.11_training_dense_right.trc'
p130
aS'/home/chen/Documents/.git/Mocap_SIG18_Data/training_data/User5/capture1/sequence.7_training_dense_right.trc'
p131
aS'/home/chen/Documents/.git/Mocap_SIG18_Data/training_data/User5/capture1/sequence.21_training_dense_left.trc'
p132
aS'/home/chen/Documents/.git/Mocap_SIG18_Data/training_data/User5/capture1/sequence.5_training_dense_right.trc'
p133
aS'/home/chen/Documents/.git/Mocap_SIG18_Data/training_data/User5/capture1/sequence.14_training_dense_right.trc'
p134
aS'/home/chen/Documents/.git/Mocap_SIG18_Data/training_data/User5/capture1/sequence.25_training_dense_left.trc'
p135
aS'/home/chen/Documents/.git/Mocap_SIG18_Data/training_data/User5/capture1/sequence.40_training_dense_left.trc'
p136
aS'/home/chen/Documents/.git/Mocap_SIG18_Data/training_data/User5/capture1/sequence.10_training_dense_left.trc'
p137
aS'/home/chen/Documents/.git/Mocap_SIG18_Data/training_data/User5/capture1/sequence.15_training_dense_right.trc'
p138
aS'/home/chen/Documents/.git/Mocap_SIG18_Data/training_data/User5/capture1/sequence.26_training_dense_right.trc'
p139
aS'/home/chen/Documents/.git/Mocap_SIG18_Data/training_data/User5/capture1/sequence.37_training_dense_right.trc'
p140
aS'/home/chen/Documents/.git/Mocap_SIG18_Data/training_data/User5/capture1/sequence.29_training_dense_left.trc'
p141
aS'/home/chen/Documents/.git/Mocap_SIG18_Data/training_data/User5/capture1/sequence.35_training_dense_left.trc'
p142
aS'/home/chen/Documents/.git/Mocap_SIG18_Data/training_data/User5/capture1/sequence.6_training_dense_right.trc'
p143
aS'/home/chen/Documents/.git/Mocap_SIG18_Data/training_data/User5/capture1/sequence.34_training_dense_left.trc'
p144
aS'/home/chen/Documents/.git/Mocap_SIG18_Data/training_data/User5/capture1/sequence.10_training_dense_right.trc'
p145
aS'/home/chen/Documents/.git/Mocap_SIG18_Data/training_data/User5/capture1/sequence.27_training_dense_right.trc'
p146
aS'/home/chen/Documents/.git/Mocap_SIG18_Data/training_data/User5/capture1/sequence.32_training_dense_left.trc'
p147
aS'/home/chen/Documents/.git/Mocap_SIG18_Data/training_data/User5/capture1/sequence.24_training_dense_right.trc'
p148
aS'/home/chen/Documents/.git/Mocap_SIG18_Data/training_data/User5/capture1/sequence.12_training_dense_left.trc'
p149
aS'/home/chen/Documents/.git/Mocap_SIG18_Data/training_data/User5/capture1/sequence.21_training_dense_right.trc'
p150
aS'/home/chen/Documents/.git/Mocap_SIG18_Data/training_data/User5/capture1/sequence.35_training_dense_right.trc'
p151
aS'/home/chen/Documents/.git/Mocap_SIG18_Data/training_data/User5/capture1/sequence.17_training_dense_left.trc'
p152
aS'/home/chen/Documents/.git/Mocap_SIG18_Data/training_data/User5/capture1/sequence.26_training_dense_left.trc'
p153
aS'/home/chen/Documents/.git/Mocap_SIG18_Data/training_data/User5/capture1/sequence.9_training_dense_left.trc'
p154
aS'/home/chen/Documents/.git/Mocap_SIG18_Data/training_data/User5/capture1/sequence.43_training_dense_right.trc'
p155
aS'/home/chen/Documents/.git/Mocap_SIG18_Data/training_data/User5/capture1/sequence.4_training_dense_left.trc'
p156
aS'/home/chen/Documents/.git/Mocap_SIG18_Data/training_data/User5/capture1/sequence.14_training_dense_left.trc'
p157
aS'/home/chen/Documents/.git/Mocap_SIG18_Data/training_data/User5/capture1/sequence.19_training_dense_left.trc'
p158
aS'/home/chen/Documents/.git/Mocap_SIG18_Data/training_data/User5/capture1/sequence.28_training_dense_right.trc'
p159
aS'/home/chen/Documents/.git/Mocap_SIG18_Data/training_data/User5/capture1/sequence.42_training_dense_left.trc'
p160
aS'/home/chen/Documents/.git/Mocap_SIG18_Data/training_data/User5/capture1/sequence.19_training_dense_right.trc'
p161
aS'/home/chen/Documents/.git/Mocap_SIG18_Data/training_data/User5/capture1/sequence.17_training_dense_right.trc'
p162
aS'/home/chen/Documents/.git/Mocap_SIG18_Data/training_data/User5/capture1/sequence.2_training_dense_right.trc'
p163
aS'/home/chen/Documents/.git/Mocap_SIG18_Data/training_data/User5/capture1/sequence.41_training_dense_left.trc'
p164
aS'/home/chen/Documents/.git/Mocap_SIG18_Data/training_data/User5/capture1/sequence.41_training_dense_right.trc'
p165
aS'/home/chen/Documents/.git/Mocap_SIG18_Data/training_data/User5/capture1/sequence.3_training_dense_left.trc'
p166
aS'/home/chen/Documents/.git/Mocap_SIG18_Data/training_data/User5/capture1/sequence.1_training_dense_left.trc'
p167
aS'/home/chen/Documents/.git/Mocap_SIG18_Data/training_data/User4/capture2/sequence.38_training_dense_left.trc'
p168
aS'/home/chen/Documents/.git/Mocap_SIG18_Data/training_data/User4/capture2/sequence.36_training_dense_left.trc'
p169
aS'/home/chen/Documents/.git/Mocap_SIG18_Data/training_data/User4/capture2/sequence.4_training_dense_right.trc'
p170
aS'/home/chen/Documents/.git/Mocap_SIG18_Data/training_data/User4/capture2/sequence.36_training_dense_right.trc'
p171
aS'/home/chen/Documents/.git/Mocap_SIG18_Data/training_data/User4/capture2/sequence.30_training_dense_left.trc'
p172
aS'/home/chen/Documents/.git/Mocap_SIG18_Data/training_data/User4/capture2/sequence.32_training_dense_right.trc'
p173
aS'/home/chen/Documents/.git/Mocap_SIG18_Data/training_data/User4/capture2/sequence.31_training_dense_left.trc'
p174
aS'/home/chen/Documents/.git/Mocap_SIG18_Data/training_data/User4/capture2/sequence.33_training_dense_left.trc'
p175
aS'/home/chen/Documents/.git/Mocap_SIG18_Data/training_data/User4/capture2/sequence.29_training_dense_right.trc'
p176
aS'/home/chen/Documents/.git/Mocap_SIG18_Data/training_data/User4/capture2/sequence.16_training_dense_left.trc'
p177
aS'/home/chen/Documents/.git/Mocap_SIG18_Data/training_data/User4/capture2/sequence.3_training_dense_right.trc'
p178
aS'/home/chen/Documents/.git/Mocap_SIG18_Data/training_data/User4/capture2/sequence.33_training_dense_right.trc'
p179
aS'/home/chen/Documents/.git/Mocap_SIG18_Data/training_data/User4/capture2/sequence.18_training_dense_right.trc'
p180
aS'/home/chen/Documents/.git/Mocap_SIG18_Data/training_data/User4/capture2/sequence.22_training_dense_left.trc'
p181
aS'/home/chen/Documents/.git/Mocap_SIG18_Data/training_data/User4/capture2/sequence.13_training_dense_right.trc'
p182
aS'/home/chen/Documents/.git/Mocap_SIG18_Data/training_data/User4/capture2/sequence.13_training_dense_left.trc'
p183
aS'/home/chen/Documents/.git/Mocap_SIG18_Data/training_data/User4/capture2/sequence.7_training_dense_left.trc'
p184
aS'/home/chen/Documents/.git/Mocap_SIG18_Data/training_data/User4/capture2/sequence.24_training_dense_left.trc'
p185
aS'/home/chen/Documents/.git/Mocap_SIG18_Data/training_data/User4/capture2/sequence.31_training_dense_right.trc'
p186
aS'/home/chen/Documents/.git/Mocap_SIG18_Data/training_data/User4/capture2/sequence.11_training_dense_left.trc'
p187
aS'/home/chen/Documents/.git/Mocap_SIG18_Data/training_data/User4/capture2/sequence.9_training_dense_right.trc'
p188
aS'/home/chen/Documents/.git/Mocap_SIG18_Data/training_data/User4/capture2/sequence.20_training_dense_left.trc'
p189
aS'/home/chen/Documents/.git/Mocap_SIG18_Data/training_data/User4/capture2/sequence.8_training_dense_right.trc'
p190
aS'/home/chen/Documents/.git/Mocap_SIG18_Data/training_data/User4/capture2/sequence.15_training_dense_left.trc'
p191
aS'/home/chen/Documents/.git/Mocap_SIG18_Data/training_data/User4/capture2/sequence.18_training_dense_left.trc'
p192
aS'/home/chen/Documents/.git/Mocap_SIG18_Data/training_data/User4/capture2/sequence.2_training_dense_left.trc'
p193
aS'/home/chen/Documents/.git/Mocap_SIG18_Data/training_data/User4/capture2/sequence.37_training_dense_left.trc'
p194
aS'/home/chen/Documents/.git/Mocap_SIG18_Data/training_data/User4/capture2/sequence.6_training_dense_left.trc'
p195
aS'/home/chen/Documents/.git/Mocap_SIG18_Data/training_data/User4/capture2/sequence.16_training_dense_right.trc'
p196
aS'/home/chen/Documents/.git/Mocap_SIG18_Data/training_data/User4/capture2/sequence.28_training_dense_left.trc'
p197
aS'/home/chen/Documents/.git/Mocap_SIG18_Data/training_data/User4/capture2/sequence.25_training_dense_right.trc'
p198
aS'/home/chen/Documents/.git/Mocap_SIG18_Data/training_data/User4/capture2/sequence.12_training_dense_right.trc'
p199
aS'/home/chen/Documents/.git/Mocap_SIG18_Data/training_data/User4/capture2/sequence.38_training_dense_right.trc'
p200
aS'/home/chen/Documents/.git/Mocap_SIG18_Data/training_data/User4/capture2/sequence.27_training_dense_left.trc'
p201
aS'/home/chen/Documents/.git/Mocap_SIG18_Data/training_data/User4/capture2/sequence.8_training_dense_left.trc'
p202
aS'/home/chen/Documents/.git/Mocap_SIG18_Data/training_data/User4/capture2/sequence.30_training_dense_right.trc'
p203
aS'/home/chen/Documents/.git/Mocap_SIG18_Data/training_data/User4/capture2/sequence.5_training_dense_left.trc'
p204
aS'/home/chen/Documents/.git/Mocap_SIG18_Data/training_data/User4/capture2/sequence.11_training_dense_right.trc'
p205
aS'/home/chen/Documents/.git/Mocap_SIG18_Data/training_data/User4/capture2/sequence.7_training_dense_right.trc'
p206
aS'/home/chen/Documents/.git/Mocap_SIG18_Data/training_data/User4/capture2/sequence.21_training_dense_left.trc'
p207
aS'/home/chen/Documents/.git/Mocap_SIG18_Data/training_data/User4/capture2/sequence.5_training_dense_right.trc'
p208
aS'/home/chen/Documents/.git/Mocap_SIG18_Data/training_data/User4/capture2/sequence.14_training_dense_right.trc'
p209
aS'/home/chen/Documents/.git/Mocap_SIG18_Data/training_data/User4/capture2/sequence.25_training_dense_left.trc'
p210
aS'/home/chen/Documents/.git/Mocap_SIG18_Data/training_data/User4/capture2/sequence.10_training_dense_left.trc'
p211
aS'/home/chen/Documents/.git/Mocap_SIG18_Data/training_data/User4/capture2/sequence.15_training_dense_right.trc'
p212
aS'/home/chen/Documents/.git/Mocap_SIG18_Data/training_data/User4/capture2/sequence.26_training_dense_right.trc'
p213
aS'/home/chen/Documents/.git/Mocap_SIG18_Data/training_data/User4/capture2/sequence.37_training_dense_right.trc'
p214
aS'/home/chen/Documents/.git/Mocap_SIG18_Data/training_data/User4/capture2/sequence.29_training_dense_left.trc'
p215
aS'/home/chen/Documents/.git/Mocap_SIG18_Data/training_data/User4/capture2/sequence.35_training_dense_left.trc'
p216
aS'/home/chen/Documents/.git/Mocap_SIG18_Data/training_data/User4/capture2/sequence.6_training_dense_right.trc'
p217
aS'/home/chen/Documents/.git/Mocap_SIG18_Data/training_data/User4/capture2/sequence.10_training_dense_right.trc'
p218
aS'/home/chen/Documents/.git/Mocap_SIG18_Data/training_data/User4/capture2/sequence.27_training_dense_right.trc'
p219
aS'/home/chen/Documents/.git/Mocap_SIG18_Data/training_data/User4/capture2/sequence.32_training_dense_left.trc'
p220
aS'/home/chen/Documents/.git/Mocap_SIG18_Data/training_data/User4/capture2/sequence.24_training_dense_right.trc'
p221
aS'/home/chen/Documents/.git/Mocap_SIG18_Data/training_data/User4/capture2/sequence.12_training_dense_left.trc'
p222
aS'/home/chen/Documents/.git/Mocap_SIG18_Data/training_data/User4/capture2/sequence.21_training_dense_right.trc'
p223
aS'/home/chen/Documents/.git/Mocap_SIG18_Data/training_data/User4/capture2/sequence.35_training_dense_right.trc'
p224
aS'/home/chen/Documents/.git/Mocap_SIG18_Data/training_data/User4/capture2/sequence.17_training_dense_left.trc'
p225
aS'/home/chen/Documents/.git/Mocap_SIG18_Data/training_data/User4/capture2/sequence.26_training_dense_left.trc'
p226
aS'/home/chen/Documents/.git/Mocap_SIG18_Data/training_data/User4/capture2/sequence.9_training_dense_left.trc'
p227
aS'/home/chen/Documents/.git/Mocap_SIG18_Data/training_data/User4/capture2/sequence.4_training_dense_left.trc'
p228
aS'/home/chen/Documents/.git/Mocap_SIG18_Data/training_data/User4/capture2/sequence.14_training_dense_left.trc'
p229
aS'/home/chen/Documents/.git/Mocap_SIG18_Data/training_data/User4/capture2/sequence.19_training_dense_left.trc'
p230
aS'/home/chen/Documents/.git/Mocap_SIG18_Data/training_data/User4/capture2/sequence.28_training_dense_right.trc'
p231
aS'/home/chen/Documents/.git/Mocap_SIG18_Data/training_data/User4/capture2/sequence.19_training_dense_right.trc'
p232
aS'/home/chen/Documents/.git/Mocap_SIG18_Data/training_data/User4/capture2/sequence.17_training_dense_right.trc'
p233
aS'/home/chen/Documents/.git/Mocap_SIG18_Data/training_data/User4/capture2/sequence.2_training_dense_right.trc'
p234
aS'/home/chen/Documents/.git/Mocap_SIG18_Data/training_data/User4/capture2/sequence.22_training_dense_right.trc'
p235
aS'/home/chen/Documents/.git/Mocap_SIG18_Data/training_data/User4/capture2/sequence.20_training_dense_right.trc'
p236
aS'/home/chen/Documents/.git/Mocap_SIG18_Data/training_data/User4/capture2/sequence.3_training_dense_left.trc'
p237
aS'/home/chen/Documents/.git/Mocap_SIG18_Data/training_data/User4/capture1/sequence.38_training_dense_left.trc'
p238
aS'/home/chen/Documents/.git/Mocap_SIG18_Data/training_data/User4/capture1/sequence.36_training_dense_left.trc'
p239
aS'/home/chen/Documents/.git/Mocap_SIG18_Data/training_data/User4/capture1/sequence.4_training_dense_right.trc'
p240
aS'/home/chen/Documents/.git/Mocap_SIG18_Data/training_data/User4/capture1/sequence.36_training_dense_right.trc'
p241
aS'/home/chen/Documents/.git/Mocap_SIG18_Data/training_data/User4/capture1/sequence.30_training_dense_left.trc'
p242
aS'/home/chen/Documents/.git/Mocap_SIG18_Data/training_data/User4/capture1/sequence.32_training_dense_right.trc'
p243
aS'/home/chen/Documents/.git/Mocap_SIG18_Data/training_data/User4/capture1/sequence.31_training_dense_left.trc'
p244
aS'/home/chen/Documents/.git/Mocap_SIG18_Data/training_data/User4/capture1/sequence.33_training_dense_left.trc'
p245
aS'/home/chen/Documents/.git/Mocap_SIG18_Data/training_data/User4/capture1/sequence.29_training_dense_right.trc'
p246
aS'/home/chen/Documents/.git/Mocap_SIG18_Data/training_data/User4/capture1/sequence.16_training_dense_left.trc'
p247
aS'/home/chen/Documents/.git/Mocap_SIG18_Data/training_data/User4/capture1/sequence.3_training_dense_right.trc'
p248
aS'/home/chen/Documents/.git/Mocap_SIG18_Data/training_data/User4/capture1/sequence.1_training_dense_right.trc'
p249
aS'/home/chen/Documents/.git/Mocap_SIG18_Data/training_data/User4/capture1/sequence.33_training_dense_right.trc'
p250
aS'/home/chen/Documents/.git/Mocap_SIG18_Data/training_data/User4/capture1/sequence.18_training_dense_right.trc'
p251
aS'/home/chen/Documents/.git/Mocap_SIG18_Data/training_data/User4/capture1/sequence.22_training_dense_left.trc'
p252
aS'/home/chen/Documents/.git/Mocap_SIG18_Data/training_data/User4/capture1/sequence.13_training_dense_right.trc'
p253
aS'/home/chen/Documents/.git/Mocap_SIG18_Data/training_data/User4/capture1/sequence.13_training_dense_left.trc'
p254
aS'/home/chen/Documents/.git/Mocap_SIG18_Data/training_data/User4/capture1/sequence.23_training_dense_right.trc'
p255
aS'/home/chen/Documents/.git/Mocap_SIG18_Data/training_data/User4/capture1/sequence.7_training_dense_left.trc'
p256
aS'/home/chen/Documents/.git/Mocap_SIG18_Data/training_data/User4/capture1/sequence.24_training_dense_left.trc'
p257
aS'/home/chen/Documents/.git/Mocap_SIG18_Data/training_data/User4/capture1/sequence.31_training_dense_right.trc'
p258
aS'/home/chen/Documents/.git/Mocap_SIG18_Data/training_data/User4/capture1/sequence.11_training_dense_left.trc'
p259
aS'/home/chen/Documents/.git/Mocap_SIG18_Data/training_data/User4/capture1/sequence.9_training_dense_right.trc'
p260
aS'/home/chen/Documents/.git/Mocap_SIG18_Data/training_data/User4/capture1/sequence.20_training_dense_left.trc'
p261
aS'/home/chen/Documents/.git/Mocap_SIG18_Data/training_data/User4/capture1/sequence.8_training_dense_right.trc'
p262
aS'/home/chen/Documents/.git/Mocap_SIG18_Data/training_data/User4/capture1/sequence.15_training_dense_left.trc'
p263
aS'/home/chen/Documents/.git/Mocap_SIG18_Data/training_data/User4/capture1/sequence.18_training_dense_left.trc'
p264
aS'/home/chen/Documents/.git/Mocap_SIG18_Data/training_data/User4/capture1/sequence.40_training_dense_right.trc'
p265
aS'/home/chen/Documents/.git/Mocap_SIG18_Data/training_data/User4/capture1/sequence.2_training_dense_left.trc'
p266
aS'/home/chen/Documents/.git/Mocap_SIG18_Data/training_data/User4/capture1/sequence.37_training_dense_left.trc'
p267
aS'/home/chen/Documents/.git/Mocap_SIG18_Data/training_data/User4/capture1/sequence.6_training_dense_left.trc'
p268
aS'/home/chen/Documents/.git/Mocap_SIG18_Data/training_data/User4/capture1/sequence.16_training_dense_right.trc'
p269
aS'/home/chen/Documents/.git/Mocap_SIG18_Data/training_data/User4/capture1/sequence.28_training_dense_left.trc'
p270
aS'/home/chen/Documents/.git/Mocap_SIG18_Data/training_data/User4/capture1/sequence.25_training_dense_right.trc'
p271
aS'/home/chen/Documents/.git/Mocap_SIG18_Data/training_data/User4/capture1/sequence.39_training_dense_left.trc'
p272
aS'/home/chen/Documents/.git/Mocap_SIG18_Data/training_data/User4/capture1/sequence.42_training_dense_right.trc'
p273
aS'/home/chen/Documents/.git/Mocap_SIG18_Data/training_data/User4/capture1/sequence.12_training_dense_right.trc'
p274
aS'/home/chen/Documents/.git/Mocap_SIG18_Data/training_data/User4/capture1/sequence.38_training_dense_right.trc'
p275
aS'/home/chen/Documents/.git/Mocap_SIG18_Data/training_data/User4/capture1/sequence.34_training_dense_right.trc'
p276
aS'/home/chen/Documents/.git/Mocap_SIG18_Data/training_data/User4/capture1/sequence.27_training_dense_left.trc'
p277
aS'/home/chen/Documents/.git/Mocap_SIG18_Data/training_data/User4/capture1/sequence.8_training_dense_left.trc'
p278
aS'/home/chen/Documents/.git/Mocap_SIG18_Data/training_data/User4/capture1/sequence.39_training_dense_right.trc'
p279
aS'/home/chen/Documents/.git/Mocap_SIG18_Data/training_data/User4/capture1/sequence.30_training_dense_right.trc'
p280
aS'/home/chen/Documents/.git/Mocap_SIG18_Data/training_data/User4/capture1/sequence.5_training_dense_left.trc'
p281
aS'/home/chen/Documents/.git/Mocap_SIG18_Data/training_data/User4/capture1/sequence.11_training_dense_right.trc'
p282
aS'/home/chen/Documents/.git/Mocap_SIG18_Data/training_data/User4/capture1/sequence.7_training_dense_right.trc'
p283
aS'/home/chen/Documents/.git/Mocap_SIG18_Data/training_data/User4/capture1/sequence.21_training_dense_left.trc'
p284
aS'/home/chen/Documents/.git/Mocap_SIG18_Data/training_data/User4/capture1/sequence.5_training_dense_right.trc'
p285
aS'/home/chen/Documents/.git/Mocap_SIG18_Data/training_data/User4/capture1/sequence.14_training_dense_right.trc'
p286
aS'/home/chen/Documents/.git/Mocap_SIG18_Data/training_data/User4/capture1/sequence.25_training_dense_left.trc'
p287
aS'/home/chen/Documents/.git/Mocap_SIG18_Data/training_data/User4/capture1/sequence.40_training_dense_left.trc'
p288
aS'/home/chen/Documents/.git/Mocap_SIG18_Data/training_data/User4/capture1/sequence.10_training_dense_left.trc'
p289
aS'/home/chen/Documents/.git/Mocap_SIG18_Data/training_data/User4/capture1/sequence.15_training_dense_right.trc'
p290
aS'/home/chen/Documents/.git/Mocap_SIG18_Data/training_data/User4/capture1/sequence.26_training_dense_right.trc'
p291
aS'/home/chen/Documents/.git/Mocap_SIG18_Data/training_data/User4/capture1/sequence.37_training_dense_right.trc'
p292
aS'/home/chen/Documents/.git/Mocap_SIG18_Data/training_data/User4/capture1/sequence.29_training_dense_left.trc'
p293
aS'/home/chen/Documents/.git/Mocap_SIG18_Data/training_data/User4/capture1/sequence.35_training_dense_left.trc'
p294
aS'/home/chen/Documents/.git/Mocap_SIG18_Data/training_data/User4/capture1/sequence.6_training_dense_right.trc'
p295
aS'/home/chen/Documents/.git/Mocap_SIG18_Data/training_data/User4/capture1/sequence.34_training_dense_left.trc'
p296
aS'/home/chen/Documents/.git/Mocap_SIG18_Data/training_data/User4/capture1/sequence.10_training_dense_right.trc'
p297
aS'/home/chen/Documents/.git/Mocap_SIG18_Data/training_data/User4/capture1/sequence.27_training_dense_right.trc'
p298
aS'/home/chen/Documents/.git/Mocap_SIG18_Data/training_data/User4/capture1/sequence.32_training_dense_left.trc'
p299
aS'/home/chen/Documents/.git/Mocap_SIG18_Data/training_data/User4/capture1/sequence.24_training_dense_right.trc'
p300
aS'/home/chen/Documents/.git/Mocap_SIG18_Data/training_data/User4/capture1/sequence.12_training_dense_left.trc'
p301
aS'/home/chen/Documents/.git/Mocap_SIG18_Data/training_data/User4/capture1/sequence.21_training_dense_right.trc'
p302
aS'/home/chen/Documents/.git/Mocap_SIG18_Data/training_data/User4/capture1/sequence.35_training_dense_right.trc'
p303
aS'/home/chen/Documents/.git/Mocap_SIG18_Data/training_data/User4/capture1/sequence.17_training_dense_left.trc'
p304
aS'/home/chen/Documents/.git/Mocap_SIG18_Data/training_data/User4/capture1/sequence.26_training_dense_left.trc'
p305
aS'/home/chen/Documents/.git/Mocap_SIG18_Data/training_data/User4/capture1/sequence.9_training_dense_left.trc'
p306
aS'/home/chen/Documents/.git/Mocap_SIG18_Data/training_data/User4/capture1/sequence.23_training_dense_left.trc'
p307
aS'/home/chen/Documents/.git/Mocap_SIG18_Data/training_data/User4/capture1/sequence.4_training_dense_left.trc'
p308
aS'/home/chen/Documents/.git/Mocap_SIG18_Data/training_data/User4/capture1/sequence.14_training_dense_left.trc'
p309
aS'/home/chen/Documents/.git/Mocap_SIG18_Data/training_data/User4/capture1/sequence.19_training_dense_left.trc'
p310
aS'/home/chen/Documents/.git/Mocap_SIG18_Data/training_data/User4/capture1/sequence.28_training_dense_right.trc'
p311
aS'/home/chen/Documents/.git/Mocap_SIG18_Data/training_data/User4/capture1/sequence.42_training_dense_left.trc'
p312
aS'/home/chen/Documents/.git/Mocap_SIG18_Data/training_data/User4/capture1/sequence.19_training_dense_right.trc'
p313
aS'/home/chen/Documents/.git/Mocap_SIG18_Data/training_data/User4/capture1/sequence.17_training_dense_right.trc'
p314
aS'/home/chen/Documents/.git/Mocap_SIG18_Data/training_data/User4/capture1/sequence.2_training_dense_right.trc'
p315
aS'/home/chen/Documents/.git/Mocap_SIG18_Data/training_data/User4/capture1/sequence.22_training_dense_right.trc'
p316
aS'/home/chen/Documents/.git/Mocap_SIG18_Data/training_data/User4/capture1/sequence.41_training_dense_left.trc'
p317
aS'/home/chen/Documents/.git/Mocap_SIG18_Data/training_data/User4/capture1/sequence.41_training_dense_right.trc'
p318
aS'/home/chen/Documents/.git/Mocap_SIG18_Data/training_data/User4/capture1/sequence.20_training_dense_right.trc'
p319
aS'/home/chen/Documents/.git/Mocap_SIG18_Data/training_data/User4/capture1/sequence.3_training_dense_left.trc'
p320
aS'/home/chen/Documents/.git/Mocap_SIG18_Data/training_data/User4/capture1/sequence.1_training_dense_left.trc'
p321
aS'/home/chen/Documents/.git/Mocap_SIG18_Data/training_data/User1/capture2/sequence.38_training_dense_left.trc'
p322
aS'/home/chen/Documents/.git/Mocap_SIG18_Data/training_data/User1/capture2/sequence.36_training_dense_left.trc'
p323
aS'/home/chen/Documents/.git/Mocap_SIG18_Data/training_data/User1/capture2/sequence.4_training_dense_right.trc'
p324
aS'/home/chen/Documents/.git/Mocap_SIG18_Data/training_data/User1/capture2/sequence.36_training_dense_right.trc'
p325
aS'/home/chen/Documents/.git/Mocap_SIG18_Data/training_data/User1/capture2/sequence.30_training_dense_left.trc'
p326
aS'/home/chen/Documents/.git/Mocap_SIG18_Data/training_data/User1/capture2/sequence.32_training_dense_right.trc'
p327
aS'/home/chen/Documents/.git/Mocap_SIG18_Data/training_data/User1/capture2/sequence.31_training_dense_left.trc'
p328
aS'/home/chen/Documents/.git/Mocap_SIG18_Data/training_data/User1/capture2/sequence.33_training_dense_left.trc'
p329
aS'/home/chen/Documents/.git/Mocap_SIG18_Data/training_data/User1/capture2/sequence.29_training_dense_right.trc'
p330
aS'/home/chen/Documents/.git/Mocap_SIG18_Data/training_data/User1/capture2/sequence.16_training_dense_left.trc'
p331
aS'/home/chen/Documents/.git/Mocap_SIG18_Data/training_data/User1/capture2/sequence.3_training_dense_right.trc'
p332
aS'/home/chen/Documents/.git/Mocap_SIG18_Data/training_data/User1/capture2/sequence.1_training_dense_right.trc'
p333
aS'/home/chen/Documents/.git/Mocap_SIG18_Data/training_data/User1/capture2/sequence.33_training_dense_right.trc'
p334
aS'/home/chen/Documents/.git/Mocap_SIG18_Data/training_data/User1/capture2/sequence.18_training_dense_right.trc'
p335
aS'/home/chen/Documents/.git/Mocap_SIG18_Data/training_data/User1/capture2/sequence.22_training_dense_left.trc'
p336
aS'/home/chen/Documents/.git/Mocap_SIG18_Data/training_data/User1/capture2/sequence.13_training_dense_right.trc'
p337
aS'/home/chen/Documents/.git/Mocap_SIG18_Data/training_data/User1/capture2/sequence.13_training_dense_left.trc'
p338
aS'/home/chen/Documents/.git/Mocap_SIG18_Data/training_data/User1/capture2/sequence.23_training_dense_right.trc'
p339
aS'/home/chen/Documents/.git/Mocap_SIG18_Data/training_data/User1/capture2/sequence.7_training_dense_left.trc'
p340
aS'/home/chen/Documents/.git/Mocap_SIG18_Data/training_data/User1/capture2/sequence.24_training_dense_left.trc'
p341
aS'/home/chen/Documents/.git/Mocap_SIG18_Data/training_data/User1/capture2/sequence.31_training_dense_right.trc'
p342
aS'/home/chen/Documents/.git/Mocap_SIG18_Data/training_data/User1/capture2/sequence.11_training_dense_left.trc'
p343
aS'/home/chen/Documents/.git/Mocap_SIG18_Data/training_data/User1/capture2/sequence.9_training_dense_right.trc'
p344
aS'/home/chen/Documents/.git/Mocap_SIG18_Data/training_data/User1/capture2/sequence.20_training_dense_left.trc'
p345
aS'/home/chen/Documents/.git/Mocap_SIG18_Data/training_data/User1/capture2/sequence.8_training_dense_right.trc'
p346
aS'/home/chen/Documents/.git/Mocap_SIG18_Data/training_data/User1/capture2/sequence.15_training_dense_left.trc'
p347
aS'/home/chen/Documents/.git/Mocap_SIG18_Data/training_data/User1/capture2/sequence.18_training_dense_left.trc'
p348
aS'/home/chen/Documents/.git/Mocap_SIG18_Data/training_data/User1/capture2/sequence.2_training_dense_left.trc'
p349
aS'/home/chen/Documents/.git/Mocap_SIG18_Data/training_data/User1/capture2/sequence.37_training_dense_left.trc'
p350
aS'/home/chen/Documents/.git/Mocap_SIG18_Data/training_data/User1/capture2/sequence.6_training_dense_left.trc'
p351
aS'/home/chen/Documents/.git/Mocap_SIG18_Data/training_data/User1/capture2/sequence.16_training_dense_right.trc'
p352
aS'/home/chen/Documents/.git/Mocap_SIG18_Data/training_data/User1/capture2/sequence.28_training_dense_left.trc'
p353
aS'/home/chen/Documents/.git/Mocap_SIG18_Data/training_data/User1/capture2/sequence.25_training_dense_right.trc'
p354
aS'/home/chen/Documents/.git/Mocap_SIG18_Data/training_data/User1/capture2/sequence.12_training_dense_right.trc'
p355
aS'/home/chen/Documents/.git/Mocap_SIG18_Data/training_data/User1/capture2/sequence.38_training_dense_right.trc'
p356
aS'/home/chen/Documents/.git/Mocap_SIG18_Data/training_data/User1/capture2/sequence.34_training_dense_right.trc'
p357
aS'/home/chen/Documents/.git/Mocap_SIG18_Data/training_data/User1/capture2/sequence.27_training_dense_left.trc'
p358
aS'/home/chen/Documents/.git/Mocap_SIG18_Data/training_data/User1/capture2/sequence.8_training_dense_left.trc'
p359
aS'/home/chen/Documents/.git/Mocap_SIG18_Data/training_data/User1/capture2/sequence.30_training_dense_right.trc'
p360
aS'/home/chen/Documents/.git/Mocap_SIG18_Data/training_data/User1/capture2/sequence.5_training_dense_left.trc'
p361
aS'/home/chen/Documents/.git/Mocap_SIG18_Data/training_data/User1/capture2/sequence.11_training_dense_right.trc'
p362
aS'/home/chen/Documents/.git/Mocap_SIG18_Data/training_data/User1/capture2/sequence.7_training_dense_right.trc'
p363
aS'/home/chen/Documents/.git/Mocap_SIG18_Data/training_data/User1/capture2/sequence.21_training_dense_left.trc'
p364
aS'/home/chen/Documents/.git/Mocap_SIG18_Data/training_data/User1/capture2/sequence.5_training_dense_right.trc'
p365
aS'/home/chen/Documents/.git/Mocap_SIG18_Data/training_data/User1/capture2/sequence.14_training_dense_right.trc'
p366
aS'/home/chen/Documents/.git/Mocap_SIG18_Data/training_data/User1/capture2/sequence.25_training_dense_left.trc'
p367
aS'/home/chen/Documents/.git/Mocap_SIG18_Data/training_data/User1/capture2/sequence.15_training_dense_right.trc'
p368
aS'/home/chen/Documents/.git/Mocap_SIG18_Data/training_data/User1/capture2/sequence.26_training_dense_right.trc'
p369
aS'/home/chen/Documents/.git/Mocap_SIG18_Data/training_data/User1/capture2/sequence.37_training_dense_right.trc'
p370
aS'/home/chen/Documents/.git/Mocap_SIG18_Data/training_data/User1/capture2/sequence.29_training_dense_left.trc'
p371
aS'/home/chen/Documents/.git/Mocap_SIG18_Data/training_data/User1/capture2/sequence.6_training_dense_right.trc'
p372
aS'/home/chen/Documents/.git/Mocap_SIG18_Data/training_data/User1/capture2/sequence.34_training_dense_left.trc'
p373
aS'/home/chen/Documents/.git/Mocap_SIG18_Data/training_data/User1/capture2/sequence.27_training_dense_right.trc'
p374
aS'/home/chen/Documents/.git/Mocap_SIG18_Data/training_data/User1/capture2/sequence.32_training_dense_left.trc'
p375
aS'/home/chen/Documents/.git/Mocap_SIG18_Data/training_data/User1/capture2/sequence.24_training_dense_right.trc'
p376
aS'/home/chen/Documents/.git/Mocap_SIG18_Data/training_data/User1/capture2/sequence.12_training_dense_left.trc'
p377
aS'/home/chen/Documents/.git/Mocap_SIG18_Data/training_data/User1/capture2/sequence.21_training_dense_right.trc'
p378
aS'/home/chen/Documents/.git/Mocap_SIG18_Data/training_data/User1/capture2/sequence.17_training_dense_left.trc'
p379
aS'/home/chen/Documents/.git/Mocap_SIG18_Data/training_data/User1/capture2/sequence.26_training_dense_left.trc'
p380
aS'/home/chen/Documents/.git/Mocap_SIG18_Data/training_data/User1/capture2/sequence.9_training_dense_left.trc'
p381
aS'/home/chen/Documents/.git/Mocap_SIG18_Data/training_data/User1/capture2/sequence.23_training_dense_left.trc'
p382
aS'/home/chen/Documents/.git/Mocap_SIG18_Data/training_data/User1/capture2/sequence.4_training_dense_left.trc'
p383
aS'/home/chen/Documents/.git/Mocap_SIG18_Data/training_data/User1/capture2/sequence.14_training_dense_left.trc'
p384
aS'/home/chen/Documents/.git/Mocap_SIG18_Data/training_data/User1/capture2/sequence.19_training_dense_left.trc'
p385
aS'/home/chen/Documents/.git/Mocap_SIG18_Data/training_data/User1/capture2/sequence.28_training_dense_right.trc'
p386
aS'/home/chen/Documents/.git/Mocap_SIG18_Data/training_data/User1/capture2/sequence.19_training_dense_right.trc'
p387
aS'/home/chen/Documents/.git/Mocap_SIG18_Data/training_data/User1/capture2/sequence.17_training_dense_right.trc'
p388
aS'/home/chen/Documents/.git/Mocap_SIG18_Data/training_data/User1/capture2/sequence.2_training_dense_right.trc'
p389
aS'/home/chen/Documents/.git/Mocap_SIG18_Data/training_data/User1/capture2/sequence.22_training_dense_right.trc'
p390
aS'/home/chen/Documents/.git/Mocap_SIG18_Data/training_data/User1/capture2/sequence.20_training_dense_right.trc'
p391
aS'/home/chen/Documents/.git/Mocap_SIG18_Data/training_data/User1/capture2/sequence.3_training_dense_left.trc'
p392
aS'/home/chen/Documents/.git/Mocap_SIG18_Data/training_data/User1/capture2/sequence.1_training_dense_left.trc'
p393
aS'/home/chen/Documents/.git/Mocap_SIG18_Data/training_data/User1/capture1/sequence.4_training_dense_right.trc'
p394
aS'/home/chen/Documents/.git/Mocap_SIG18_Data/training_data/User1/capture1/sequence.29_training_dense_right.trc'
p395
aS'/home/chen/Documents/.git/Mocap_SIG18_Data/training_data/User1/capture1/sequence.16_training_dense_left.trc'
p396
aS'/home/chen/Documents/.git/Mocap_SIG18_Data/training_data/User1/capture1/sequence.3_training_dense_right.trc'
p397
aS'/home/chen/Documents/.git/Mocap_SIG18_Data/training_data/User1/capture1/sequence.1_training_dense_right.trc'
p398
aS'/home/chen/Documents/.git/Mocap_SIG18_Data/training_data/User1/capture1/sequence.18_training_dense_right.trc'
p399
aS'/home/chen/Documents/.git/Mocap_SIG18_Data/training_data/User1/capture1/sequence.22_training_dense_left.trc'
p400
aS'/home/chen/Documents/.git/Mocap_SIG18_Data/training_data/User1/capture1/sequence.13_training_dense_right.trc'
p401
aS'/home/chen/Documents/.git/Mocap_SIG18_Data/training_data/User1/capture1/sequence.13_training_dense_left.trc'
p402
aS'/home/chen/Documents/.git/Mocap_SIG18_Data/training_data/User1/capture1/sequence.23_training_dense_right.trc'
p403
aS'/home/chen/Documents/.git/Mocap_SIG18_Data/training_data/User1/capture1/sequence.7_training_dense_left.trc'
p404
aS'/home/chen/Documents/.git/Mocap_SIG18_Data/training_data/User1/capture1/sequence.24_training_dense_left.trc'
p405
aS'/home/chen/Documents/.git/Mocap_SIG18_Data/training_data/User1/capture1/sequence.11_training_dense_left.trc'
p406
aS'/home/chen/Documents/.git/Mocap_SIG18_Data/training_data/User1/capture1/sequence.9_training_dense_right.trc'
p407
aS'/home/chen/Documents/.git/Mocap_SIG18_Data/training_data/User1/capture1/sequence.20_training_dense_left.trc'
p408
aS'/home/chen/Documents/.git/Mocap_SIG18_Data/training_data/User1/capture1/sequence.8_training_dense_right.trc'
p409
aS'/home/chen/Documents/.git/Mocap_SIG18_Data/training_data/User1/capture1/sequence.15_training_dense_left.trc'
p410
aS'/home/chen/Documents/.git/Mocap_SIG18_Data/training_data/User1/capture1/sequence.18_training_dense_left.trc'
p411
aS'/home/chen/Documents/.git/Mocap_SIG18_Data/training_data/User1/capture1/sequence.2_training_dense_left.trc'
p412
aS'/home/chen/Documents/.git/Mocap_SIG18_Data/training_data/User1/capture1/sequence.6_training_dense_left.trc'
p413
aS'/home/chen/Documents/.git/Mocap_SIG18_Data/training_data/User1/capture1/sequence.16_training_dense_right.trc'
p414
aS'/home/chen/Documents/.git/Mocap_SIG18_Data/training_data/User1/capture1/sequence.28_training_dense_left.trc'
p415
aS'/home/chen/Documents/.git/Mocap_SIG18_Data/training_data/User1/capture1/sequence.25_training_dense_right.trc'
p416
aS'/home/chen/Documents/.git/Mocap_SIG18_Data/training_data/User1/capture1/sequence.12_training_dense_right.trc'
p417
aS'/home/chen/Documents/.git/Mocap_SIG18_Data/training_data/User1/capture1/sequence.27_training_dense_left.trc'
p418
aS'/home/chen/Documents/.git/Mocap_SIG18_Data/training_data/User1/capture1/sequence.8_training_dense_left.trc'
p419
aS'/home/chen/Documents/.git/Mocap_SIG18_Data/training_data/User1/capture1/sequence.5_training_dense_left.trc'
p420
aS'/home/chen/Documents/.git/Mocap_SIG18_Data/training_data/User1/capture1/sequence.11_training_dense_right.trc'
p421
aS'/home/chen/Documents/.git/Mocap_SIG18_Data/training_data/User1/capture1/sequence.7_training_dense_right.trc'
p422
aS'/home/chen/Documents/.git/Mocap_SIG18_Data/training_data/User1/capture1/sequence.21_training_dense_left.trc'
p423
aS'/home/chen/Documents/.git/Mocap_SIG18_Data/training_data/User1/capture1/sequence.5_training_dense_right.trc'
p424
aS'/home/chen/Documents/.git/Mocap_SIG18_Data/training_data/User1/capture1/sequence.14_training_dense_right.trc'
p425
aS'/home/chen/Documents/.git/Mocap_SIG18_Data/training_data/User1/capture1/sequence.25_training_dense_left.trc'
p426
aS'/home/chen/Documents/.git/Mocap_SIG18_Data/training_data/User1/capture1/sequence.10_training_dense_left.trc'
p427
aS'/home/chen/Documents/.git/Mocap_SIG18_Data/training_data/User1/capture1/sequence.15_training_dense_right.trc'
p428
aS'/home/chen/Documents/.git/Mocap_SIG18_Data/training_data/User1/capture1/sequence.26_training_dense_right.trc'
p429
aS'/home/chen/Documents/.git/Mocap_SIG18_Data/training_data/User1/capture1/sequence.29_training_dense_left.trc'
p430
aS'/home/chen/Documents/.git/Mocap_SIG18_Data/training_data/User1/capture1/sequence.6_training_dense_right.trc'
p431
aS'/home/chen/Documents/.git/Mocap_SIG18_Data/training_data/User1/capture1/sequence.10_training_dense_right.trc'
p432
aS'/home/chen/Documents/.git/Mocap_SIG18_Data/training_data/User1/capture1/sequence.27_training_dense_right.trc'
p433
aS'/home/chen/Documents/.git/Mocap_SIG18_Data/training_data/User1/capture1/sequence.24_training_dense_right.trc'
p434
aS'/home/chen/Documents/.git/Mocap_SIG18_Data/training_data/User1/capture1/sequence.12_training_dense_left.trc'
p435
aS'/home/chen/Documents/.git/Mocap_SIG18_Data/training_data/User1/capture1/sequence.21_training_dense_right.trc'
p436
aS'/home/chen/Documents/.git/Mocap_SIG18_Data/training_data/User1/capture1/sequence.17_training_dense_left.trc'
p437
aS'/home/chen/Documents/.git/Mocap_SIG18_Data/training_data/User1/capture1/sequence.26_training_dense_left.trc'
p438
aS'/home/chen/Documents/.git/Mocap_SIG18_Data/training_data/User1/capture1/sequence.9_training_dense_left.trc'
p439
aS'/home/chen/Documents/.git/Mocap_SIG18_Data/training_data/User1/capture1/sequence.23_training_dense_left.trc'
p440
aS'/home/chen/Documents/.git/Mocap_SIG18_Data/training_data/User1/capture1/sequence.4_training_dense_left.trc'
p441
aS'/home/chen/Documents/.git/Mocap_SIG18_Data/training_data/User1/capture1/sequence.14_training_dense_left.trc'
p442
aS'/home/chen/Documents/.git/Mocap_SIG18_Data/training_data/User1/capture1/sequence.19_training_dense_left.trc'
p443
aS'/home/chen/Documents/.git/Mocap_SIG18_Data/training_data/User1/capture1/sequence.28_training_dense_right.trc'
p444
aS'/home/chen/Documents/.git/Mocap_SIG18_Data/training_data/User1/capture1/sequence.19_training_dense_right.trc'
p445
aS'/home/chen/Documents/.git/Mocap_SIG18_Data/training_data/User1/capture1/sequence.17_training_dense_right.trc'
p446
aS'/home/chen/Documents/.git/Mocap_SIG18_Data/training_data/User1/capture1/sequence.2_training_dense_right.trc'
p447
aS'/home/chen/Documents/.git/Mocap_SIG18_Data/training_data/User1/capture1/sequence.22_training_dense_right.trc'
p448
aS'/home/chen/Documents/.git/Mocap_SIG18_Data/training_data/User1/capture1/sequence.20_training_dense_right.trc'
p449
aS'/home/chen/Documents/.git/Mocap_SIG18_Data/training_data/User1/capture1/sequence.3_training_dense_left.trc'
p450
aS'/home/chen/Documents/.git/Mocap_SIG18_Data/training_data/User1/capture1/sequence.1_training_dense_left.trc'
p451
aS'/home/chen/Documents/.git/Mocap_SIG18_Data/training_data/User3/capture2/sequence.38_training_dense_left.trc'
p452
aS'/home/chen/Documents/.git/Mocap_SIG18_Data/training_data/User3/capture2/sequence.36_training_dense_left.trc'
p453
aS'/home/chen/Documents/.git/Mocap_SIG18_Data/training_data/User3/capture2/sequence.4_training_dense_right.trc'
p454
aS'/home/chen/Documents/.git/Mocap_SIG18_Data/training_data/User3/capture2/sequence.36_training_dense_right.trc'
p455
aS'/home/chen/Documents/.git/Mocap_SIG18_Data/training_data/User3/capture2/sequence.30_training_dense_left.trc'
p456
aS'/home/chen/Documents/.git/Mocap_SIG18_Data/training_data/User3/capture2/sequence.32_training_dense_right.trc'
p457
aS'/home/chen/Documents/.git/Mocap_SIG18_Data/training_data/User3/capture2/sequence.33_training_dense_left.trc'
p458
aS'/home/chen/Documents/.git/Mocap_SIG18_Data/training_data/User3/capture2/sequence.29_training_dense_right.trc'
p459
aS'/home/chen/Documents/.git/Mocap_SIG18_Data/training_data/User3/capture2/sequence.16_training_dense_left.trc'
p460
aS'/home/chen/Documents/.git/Mocap_SIG18_Data/training_data/User3/capture2/sequence.3_training_dense_right.trc'
p461
aS'/home/chen/Documents/.git/Mocap_SIG18_Data/training_data/User3/capture2/sequence.1_training_dense_right.trc'
p462
aS'/home/chen/Documents/.git/Mocap_SIG18_Data/training_data/User3/capture2/sequence.33_training_dense_right.trc'
p463
aS'/home/chen/Documents/.git/Mocap_SIG18_Data/training_data/User3/capture2/sequence.18_training_dense_right.trc'
p464
aS'/home/chen/Documents/.git/Mocap_SIG18_Data/training_data/User3/capture2/sequence.22_training_dense_left.trc'
p465
aS'/home/chen/Documents/.git/Mocap_SIG18_Data/training_data/User3/capture2/sequence.13_training_dense_right.trc'
p466
aS'/home/chen/Documents/.git/Mocap_SIG18_Data/training_data/User3/capture2/sequence.49_training_dense_right.trc'
p467
aS'/home/chen/Documents/.git/Mocap_SIG18_Data/training_data/User3/capture2/sequence.47_training_dense_right.trc'
p468
aS'/home/chen/Documents/.git/Mocap_SIG18_Data/training_data/User3/capture2/sequence.47_training_dense_left.trc'
p469
aS'/home/chen/Documents/.git/Mocap_SIG18_Data/training_data/User3/capture2/sequence.13_training_dense_left.trc'
p470
aS'/home/chen/Documents/.git/Mocap_SIG18_Data/training_data/User3/capture2/sequence.23_training_dense_right.trc'
p471
aS'/home/chen/Documents/.git/Mocap_SIG18_Data/training_data/User3/capture2/sequence.7_training_dense_left.trc'
p472
aS'/home/chen/Documents/.git/Mocap_SIG18_Data/training_data/User3/capture2/sequence.24_training_dense_left.trc'
p473
aS'/home/chen/Documents/.git/Mocap_SIG18_Data/training_data/User3/capture2/sequence.11_training_dense_left.trc'
p474
aS'/home/chen/Documents/.git/Mocap_SIG18_Data/training_data/User3/capture2/sequence.9_training_dense_right.trc'
p475
aS'/home/chen/Documents/.git/Mocap_SIG18_Data/training_data/User3/capture2/sequence.20_training_dense_left.trc'
p476
aS'/home/chen/Documents/.git/Mocap_SIG18_Data/training_data/User3/capture2/sequence.8_training_dense_right.trc'
p477
aS'/home/chen/Documents/.git/Mocap_SIG18_Data/training_data/User3/capture2/sequence.15_training_dense_left.trc'
p478
aS'/home/chen/Documents/.git/Mocap_SIG18_Data/training_data/User3/capture2/sequence.18_training_dense_left.trc'
p479
aS'/home/chen/Documents/.git/Mocap_SIG18_Data/training_data/User3/capture2/sequence.40_training_dense_right.trc'
p480
aS'/home/chen/Documents/.git/Mocap_SIG18_Data/training_data/User3/capture2/sequence.2_training_dense_left.trc'
p481
aS'/home/chen/Documents/.git/Mocap_SIG18_Data/training_data/User3/capture2/sequence.51_training_dense_left.trc'
p482
aS'/home/chen/Documents/.git/Mocap_SIG18_Data/training_data/User3/capture2/sequence.37_training_dense_left.trc'
p483
aS'/home/chen/Documents/.git/Mocap_SIG18_Data/training_data/User3/capture2/sequence.51_training_dense_right.trc'
p484
aS'/home/chen/Documents/.git/Mocap_SIG18_Data/training_data/User3/capture2/sequence.6_training_dense_left.trc'
p485
aS'/home/chen/Documents/.git/Mocap_SIG18_Data/training_data/User3/capture2/sequence.16_training_dense_right.trc'
p486
aS'/home/chen/Documents/.git/Mocap_SIG18_Data/training_data/User3/capture2/sequence.28_training_dense_left.trc'
p487
aS'/home/chen/Documents/.git/Mocap_SIG18_Data/training_data/User3/capture2/sequence.25_training_dense_right.trc'
p488
aS'/home/chen/Documents/.git/Mocap_SIG18_Data/training_data/User3/capture2/sequence.39_training_dense_left.trc'
p489
aS'/home/chen/Documents/.git/Mocap_SIG18_Data/training_data/User3/capture2/sequence.49_training_dense_left.trc'
p490
aS'/home/chen/Documents/.git/Mocap_SIG18_Data/training_data/User3/capture2/sequence.45_training_dense_right.trc'
p491
aS'/home/chen/Documents/.git/Mocap_SIG18_Data/training_data/User3/capture2/sequence.42_training_dense_right.trc'
p492
aS'/home/chen/Documents/.git/Mocap_SIG18_Data/training_data/User3/capture2/sequence.12_training_dense_right.trc'
p493
aS'/home/chen/Documents/.git/Mocap_SIG18_Data/training_data/User3/capture2/sequence.38_training_dense_right.trc'
p494
aS'/home/chen/Documents/.git/Mocap_SIG18_Data/training_data/User3/capture2/sequence.34_training_dense_right.trc'
p495
aS'/home/chen/Documents/.git/Mocap_SIG18_Data/training_data/User3/capture2/sequence.27_training_dense_left.trc'
p496
aS'/home/chen/Documents/.git/Mocap_SIG18_Data/training_data/User3/capture2/sequence.8_training_dense_left.trc'
p497
aS'/home/chen/Documents/.git/Mocap_SIG18_Data/training_data/User3/capture2/sequence.39_training_dense_right.trc'
p498
aS'/home/chen/Documents/.git/Mocap_SIG18_Data/training_data/User3/capture2/sequence.48_training_dense_right.trc'
p499
aS'/home/chen/Documents/.git/Mocap_SIG18_Data/training_data/User3/capture2/sequence.30_training_dense_right.trc'
p500
aS'/home/chen/Documents/.git/Mocap_SIG18_Data/training_data/User3/capture2/sequence.5_training_dense_left.trc'
p501
aS'/home/chen/Documents/.git/Mocap_SIG18_Data/training_data/User3/capture2/sequence.45_training_dense_left.trc'
p502
aS'/home/chen/Documents/.git/Mocap_SIG18_Data/training_data/User3/capture2/sequence.43_training_dense_left.trc'
p503
aS'/home/chen/Documents/.git/Mocap_SIG18_Data/training_data/User3/capture2/sequence.11_training_dense_right.trc'
p504
aS'/home/chen/Documents/.git/Mocap_SIG18_Data/training_data/User3/capture2/sequence.7_training_dense_right.trc'
p505
aS'/home/chen/Documents/.git/Mocap_SIG18_Data/training_data/User3/capture2/sequence.21_training_dense_left.trc'
p506
aS'/home/chen/Documents/.git/Mocap_SIG18_Data/training_data/User3/capture2/sequence.46_training_dense_left.trc'
p507
aS'/home/chen/Documents/.git/Mocap_SIG18_Data/training_data/User3/capture2/sequence.5_training_dense_right.trc'
p508
aS'/home/chen/Documents/.git/Mocap_SIG18_Data/training_data/User3/capture2/sequence.14_training_dense_right.trc'
p509
aS'/home/chen/Documents/.git/Mocap_SIG18_Data/training_data/User3/capture2/sequence.25_training_dense_left.trc'
p510
aS'/home/chen/Documents/.git/Mocap_SIG18_Data/training_data/User3/capture2/sequence.40_training_dense_left.trc'
p511
aS'/home/chen/Documents/.git/Mocap_SIG18_Data/training_data/User3/capture2/sequence.50_training_dense_right.trc'
p512
aS'/home/chen/Documents/.git/Mocap_SIG18_Data/training_data/User3/capture2/sequence.10_training_dense_left.trc'
p513
aS'/home/chen/Documents/.git/Mocap_SIG18_Data/training_data/User3/capture2/sequence.15_training_dense_right.trc'
p514
aS'/home/chen/Documents/.git/Mocap_SIG18_Data/training_data/User3/capture2/sequence.48_training_dense_left.trc'
p515
aS'/home/chen/Documents/.git/Mocap_SIG18_Data/training_data/User3/capture2/sequence.26_training_dense_right.trc'
p516
aS'/home/chen/Documents/.git/Mocap_SIG18_Data/training_data/User3/capture2/sequence.37_training_dense_right.trc'
p517
aS'/home/chen/Documents/.git/Mocap_SIG18_Data/training_data/User3/capture2/sequence.29_training_dense_left.trc'
p518
aS'/home/chen/Documents/.git/Mocap_SIG18_Data/training_data/User3/capture2/sequence.35_training_dense_left.trc'
p519
aS'/home/chen/Documents/.git/Mocap_SIG18_Data/training_data/User3/capture2/sequence.6_training_dense_right.trc'
p520
aS'/home/chen/Documents/.git/Mocap_SIG18_Data/training_data/User3/capture2/sequence.34_training_dense_left.trc'
p521
aS'/home/chen/Documents/.git/Mocap_SIG18_Data/training_data/User3/capture2/sequence.10_training_dense_right.trc'
p522
aS'/home/chen/Documents/.git/Mocap_SIG18_Data/training_data/User3/capture2/sequence.27_training_dense_right.trc'
p523
aS'/home/chen/Documents/.git/Mocap_SIG18_Data/training_data/User3/capture2/sequence.32_training_dense_left.trc'
p524
aS'/home/chen/Documents/.git/Mocap_SIG18_Data/training_data/User3/capture2/sequence.24_training_dense_right.trc'
p525
aS'/home/chen/Documents/.git/Mocap_SIG18_Data/training_data/User3/capture2/sequence.12_training_dense_left.trc'
p526
aS'/home/chen/Documents/.git/Mocap_SIG18_Data/training_data/User3/capture2/sequence.21_training_dense_right.trc'
p527
aS'/home/chen/Documents/.git/Mocap_SIG18_Data/training_data/User3/capture2/sequence.35_training_dense_right.trc'
p528
aS'/home/chen/Documents/.git/Mocap_SIG18_Data/training_data/User3/capture2/sequence.17_training_dense_left.trc'
p529
aS'/home/chen/Documents/.git/Mocap_SIG18_Data/training_data/User3/capture2/sequence.46_training_dense_right.trc'
p530
aS'/home/chen/Documents/.git/Mocap_SIG18_Data/training_data/User3/capture2/sequence.26_training_dense_left.trc'
p531
aS'/home/chen/Documents/.git/Mocap_SIG18_Data/training_data/User3/capture2/sequence.9_training_dense_left.trc'
p532
aS'/home/chen/Documents/.git/Mocap_SIG18_Data/training_data/User3/capture2/sequence.23_training_dense_left.trc'
p533
aS'/home/chen/Documents/.git/Mocap_SIG18_Data/training_data/User3/capture2/sequence.43_training_dense_right.trc'
p534
aS'/home/chen/Documents/.git/Mocap_SIG18_Data/training_data/User3/capture2/sequence.4_training_dense_left.trc'
p535
aS'/home/chen/Documents/.git/Mocap_SIG18_Data/training_data/User3/capture2/sequence.14_training_dense_left.trc'
p536
aS'/home/chen/Documents/.git/Mocap_SIG18_Data/training_data/User3/capture2/sequence.19_training_dense_left.trc'
p537
aS'/home/chen/Documents/.git/Mocap_SIG18_Data/training_data/User3/capture2/sequence.28_training_dense_right.trc'
p538
aS'/home/chen/Documents/.git/Mocap_SIG18_Data/training_data/User3/capture2/sequence.42_training_dense_left.trc'
p539
aS'/home/chen/Documents/.git/Mocap_SIG18_Data/training_data/User3/capture2/sequence.19_training_dense_right.trc'
p540
aS'/home/chen/Documents/.git/Mocap_SIG18_Data/training_data/User3/capture2/sequence.17_training_dense_right.trc'
p541
aS'/home/chen/Documents/.git/Mocap_SIG18_Data/training_data/User3/capture2/sequence.2_training_dense_right.trc'
p542
aS'/home/chen/Documents/.git/Mocap_SIG18_Data/training_data/User3/capture2/sequence.22_training_dense_right.trc'
p543
aS'/home/chen/Documents/.git/Mocap_SIG18_Data/training_data/User3/capture2/sequence.41_training_dense_left.trc'
p544
aS'/home/chen/Documents/.git/Mocap_SIG18_Data/training_data/User3/capture2/sequence.41_training_dense_right.trc'
p545
aS'/home/chen/Documents/.git/Mocap_SIG18_Data/training_data/User3/capture2/sequence.20_training_dense_right.trc'
p546
aS'/home/chen/Documents/.git/Mocap_SIG18_Data/training_data/User3/capture2/sequence.3_training_dense_left.trc'
p547
aS'/home/chen/Documents/.git/Mocap_SIG18_Data/training_data/User3/capture2/sequence.50_training_dense_left.trc'
p548
aS'/home/chen/Documents/.git/Mocap_SIG18_Data/training_data/User3/capture2/sequence.1_training_dense_left.trc'
p549
aS'/home/chen/Documents/.git/Mocap_SIG18_Data/training_data/User3/capture4/sequence.38_training_dense_left.trc'
p550
aS'/home/chen/Documents/.git/Mocap_SIG18_Data/training_data/User3/capture4/sequence.36_training_dense_left.trc'
p551
aS'/home/chen/Documents/.git/Mocap_SIG18_Data/training_data/User3/capture4/sequence.4_training_dense_right.trc'
p552
aS'/home/chen/Documents/.git/Mocap_SIG18_Data/training_data/User3/capture4/sequence.36_training_dense_right.trc'
p553
aS'/home/chen/Documents/.git/Mocap_SIG18_Data/training_data/User3/capture4/sequence.30_training_dense_left.trc'
p554
aS'/home/chen/Documents/.git/Mocap_SIG18_Data/training_data/User3/capture4/sequence.32_training_dense_right.trc'
p555
aS'/home/chen/Documents/.git/Mocap_SIG18_Data/training_data/User3/capture4/sequence.31_training_dense_left.trc'
p556
aS'/home/chen/Documents/.git/Mocap_SIG18_Data/training_data/User3/capture4/sequence.33_training_dense_left.trc'
p557
aS'/home/chen/Documents/.git/Mocap_SIG18_Data/training_data/User3/capture4/sequence.29_training_dense_right.trc'
p558
aS'/home/chen/Documents/.git/Mocap_SIG18_Data/training_data/User3/capture4/sequence.16_training_dense_left.trc'
p559
aS'/home/chen/Documents/.git/Mocap_SIG18_Data/training_data/User3/capture4/sequence.33_training_dense_right.trc'
p560
aS'/home/chen/Documents/.git/Mocap_SIG18_Data/training_data/User3/capture4/sequence.18_training_dense_right.trc'
p561
aS'/home/chen/Documents/.git/Mocap_SIG18_Data/training_data/User3/capture4/sequence.22_training_dense_left.trc'
p562
aS'/home/chen/Documents/.git/Mocap_SIG18_Data/training_data/User3/capture4/sequence.13_training_dense_right.trc'
p563
aS'/home/chen/Documents/.git/Mocap_SIG18_Data/training_data/User3/capture4/sequence.13_training_dense_left.trc'
p564
aS'/home/chen/Documents/.git/Mocap_SIG18_Data/training_data/User3/capture4/sequence.23_training_dense_right.trc'
p565
aS'/home/chen/Documents/.git/Mocap_SIG18_Data/training_data/User3/capture4/sequence.7_training_dense_left.trc'
p566
aS'/home/chen/Documents/.git/Mocap_SIG18_Data/training_data/User3/capture4/sequence.24_training_dense_left.trc'
p567
aS'/home/chen/Documents/.git/Mocap_SIG18_Data/training_data/User3/capture4/sequence.31_training_dense_right.trc'
p568
aS'/home/chen/Documents/.git/Mocap_SIG18_Data/training_data/User3/capture4/sequence.11_training_dense_left.trc'
p569
aS'/home/chen/Documents/.git/Mocap_SIG18_Data/training_data/User3/capture4/sequence.9_training_dense_right.trc'
p570
aS'/home/chen/Documents/.git/Mocap_SIG18_Data/training_data/User3/capture4/sequence.20_training_dense_left.trc'
p571
aS'/home/chen/Documents/.git/Mocap_SIG18_Data/training_data/User3/capture4/sequence.8_training_dense_right.trc'
p572
aS'/home/chen/Documents/.git/Mocap_SIG18_Data/training_data/User3/capture4/sequence.15_training_dense_left.trc'
p573
aS'/home/chen/Documents/.git/Mocap_SIG18_Data/training_data/User3/capture4/sequence.18_training_dense_left.trc'
p574
aS'/home/chen/Documents/.git/Mocap_SIG18_Data/training_data/User3/capture4/sequence.40_training_dense_right.trc'
p575
aS'/home/chen/Documents/.git/Mocap_SIG18_Data/training_data/User3/capture4/sequence.37_training_dense_left.trc'
p576
aS'/home/chen/Documents/.git/Mocap_SIG18_Data/training_data/User3/capture4/sequence.6_training_dense_left.trc'
p577
aS'/home/chen/Documents/.git/Mocap_SIG18_Data/training_data/User3/capture4/sequence.16_training_dense_right.trc'
p578
aS'/home/chen/Documents/.git/Mocap_SIG18_Data/training_data/User3/capture4/sequence.28_training_dense_left.trc'
p579
aS'/home/chen/Documents/.git/Mocap_SIG18_Data/training_data/User3/capture4/sequence.25_training_dense_right.trc'
p580
aS'/home/chen/Documents/.git/Mocap_SIG18_Data/training_data/User3/capture4/sequence.39_training_dense_left.trc'
p581
aS'/home/chen/Documents/.git/Mocap_SIG18_Data/training_data/User3/capture4/sequence.12_training_dense_right.trc'
p582
aS'/home/chen/Documents/.git/Mocap_SIG18_Data/training_data/User3/capture4/sequence.38_training_dense_right.trc'
p583
aS'/home/chen/Documents/.git/Mocap_SIG18_Data/training_data/User3/capture4/sequence.34_training_dense_right.trc'
p584
aS'/home/chen/Documents/.git/Mocap_SIG18_Data/training_data/User3/capture4/sequence.27_training_dense_left.trc'
p585
aS'/home/chen/Documents/.git/Mocap_SIG18_Data/training_data/User3/capture4/sequence.8_training_dense_left.trc'
p586
aS'/home/chen/Documents/.git/Mocap_SIG18_Data/training_data/User3/capture4/sequence.39_training_dense_right.trc'
p587
aS'/home/chen/Documents/.git/Mocap_SIG18_Data/training_data/User3/capture4/sequence.30_training_dense_right.trc'
p588
aS'/home/chen/Documents/.git/Mocap_SIG18_Data/training_data/User3/capture4/sequence.11_training_dense_right.trc'
p589
aS'/home/chen/Documents/.git/Mocap_SIG18_Data/training_data/User3/capture4/sequence.7_training_dense_right.trc'
p590
aS'/home/chen/Documents/.git/Mocap_SIG18_Data/training_data/User3/capture4/sequence.21_training_dense_left.trc'
p591
aS'/home/chen/Documents/.git/Mocap_SIG18_Data/training_data/User3/capture4/sequence.14_training_dense_right.trc'
p592
aS'/home/chen/Documents/.git/Mocap_SIG18_Data/training_data/User3/capture4/sequence.25_training_dense_left.trc'
p593
aS'/home/chen/Documents/.git/Mocap_SIG18_Data/training_data/User3/capture4/sequence.40_training_dense_left.trc'
p594
aS'/home/chen/Documents/.git/Mocap_SIG18_Data/training_data/User3/capture4/sequence.10_training_dense_left.trc'
p595
aS'/home/chen/Documents/.git/Mocap_SIG18_Data/training_data/User3/capture4/sequence.15_training_dense_right.trc'
p596
aS'/home/chen/Documents/.git/Mocap_SIG18_Data/training_data/User3/capture4/sequence.26_training_dense_right.trc'
p597
aS'/home/chen/Documents/.git/Mocap_SIG18_Data/training_data/User3/capture4/sequence.37_training_dense_right.trc'
p598
aS'/home/chen/Documents/.git/Mocap_SIG18_Data/training_data/User3/capture4/sequence.29_training_dense_left.trc'
p599
aS'/home/chen/Documents/.git/Mocap_SIG18_Data/training_data/User3/capture4/sequence.35_training_dense_left.trc'
p600
aS'/home/chen/Documents/.git/Mocap_SIG18_Data/training_data/User3/capture4/sequence.6_training_dense_right.trc'
p601
aS'/home/chen/Documents/.git/Mocap_SIG18_Data/training_data/User3/capture4/sequence.34_training_dense_left.trc'
p602
aS'/home/chen/Documents/.git/Mocap_SIG18_Data/training_data/User3/capture4/sequence.10_training_dense_right.trc'
p603
aS'/home/chen/Documents/.git/Mocap_SIG18_Data/training_data/User3/capture4/sequence.27_training_dense_right.trc'
p604
aS'/home/chen/Documents/.git/Mocap_SIG18_Data/training_data/User3/capture4/sequence.32_training_dense_left.trc'
p605
aS'/home/chen/Documents/.git/Mocap_SIG18_Data/training_data/User3/capture4/sequence.24_training_dense_right.trc'
p606
aS'/home/chen/Documents/.git/Mocap_SIG18_Data/training_data/User3/capture4/sequence.12_training_dense_left.trc'
p607
aS'/home/chen/Documents/.git/Mocap_SIG18_Data/training_data/User3/capture4/sequence.21_training_dense_right.trc'
p608
aS'/home/chen/Documents/.git/Mocap_SIG18_Data/training_data/User3/capture4/sequence.35_training_dense_right.trc'
p609
aS'/home/chen/Documents/.git/Mocap_SIG18_Data/training_data/User3/capture4/sequence.17_training_dense_left.trc'
p610
aS'/home/chen/Documents/.git/Mocap_SIG18_Data/training_data/User3/capture4/sequence.26_training_dense_left.trc'
p611
aS'/home/chen/Documents/.git/Mocap_SIG18_Data/training_data/User3/capture4/sequence.9_training_dense_left.trc'
p612
aS'/home/chen/Documents/.git/Mocap_SIG18_Data/training_data/User3/capture4/sequence.23_training_dense_left.trc'
p613
aS'/home/chen/Documents/.git/Mocap_SIG18_Data/training_data/User3/capture4/sequence.4_training_dense_left.trc'
p614
aS'/home/chen/Documents/.git/Mocap_SIG18_Data/training_data/User3/capture4/sequence.14_training_dense_left.trc'
p615
aS'/home/chen/Documents/.git/Mocap_SIG18_Data/training_data/User3/capture4/sequence.19_training_dense_left.trc'
p616
aS'/home/chen/Documents/.git/Mocap_SIG18_Data/training_data/User3/capture4/sequence.28_training_dense_right.trc'
p617
aS'/home/chen/Documents/.git/Mocap_SIG18_Data/training_data/User3/capture4/sequence.19_training_dense_right.trc'
p618
aS'/home/chen/Documents/.git/Mocap_SIG18_Data/training_data/User3/capture4/sequence.17_training_dense_right.trc'
p619
aS'/home/chen/Documents/.git/Mocap_SIG18_Data/training_data/User3/capture4/sequence.22_training_dense_right.trc'
p620
aS'/home/chen/Documents/.git/Mocap_SIG18_Data/training_data/User3/capture4/sequence.41_training_dense_left.trc'
p621
aS'/home/chen/Documents/.git/Mocap_SIG18_Data/training_data/User3/capture4/sequence.41_training_dense_right.trc'
p622
aS'/home/chen/Documents/.git/Mocap_SIG18_Data/training_data/User3/capture4/sequence.20_training_dense_right.trc'
p623
aS'/home/chen/Documents/.git/Mocap_SIG18_Data/training_data/User3/capture3/out5_training_dense_right.trc'
p624
aS'/home/chen/Documents/.git/Mocap_SIG18_Data/training_data/User3/capture3/out9_training_dense_right.trc'
p625
aS'/home/chen/Documents/.git/Mocap_SIG18_Data/training_data/User3/capture3/out7_training_dense_left.trc'
p626
aS'/home/chen/Documents/.git/Mocap_SIG18_Data/training_data/User3/capture3/out2_training_dense_left.trc'
p627
aS'/home/chen/Documents/.git/Mocap_SIG18_Data/training_data/User3/capture3/out3_training_dense_left.trc'
p628
aS'/home/chen/Documents/.git/Mocap_SIG18_Data/training_data/User3/capture3/out8_training_dense_left.trc'
p629
aS'/home/chen/Documents/.git/Mocap_SIG18_Data/training_data/User3/capture3/out6_training_dense_left.trc'
p630
aS'/home/chen/Documents/.git/Mocap_SIG18_Data/training_data/User3/capture3/out1_training_dense_left.trc'
p631
aS'/home/chen/Documents/.git/Mocap_SIG18_Data/training_data/User3/capture3/out2_training_dense_right.trc'
p632
aS'/home/chen/Documents/.git/Mocap_SIG18_Data/training_data/User3/capture3/out7_training_dense_right.trc'
p633
aS'/home/chen/Documents/.git/Mocap_SIG18_Data/training_data/User3/capture3/out8_training_dense_right.trc'
p634
aS'/home/chen/Documents/.git/Mocap_SIG18_Data/training_data/User3/capture3/out5_training_dense_left.trc'
p635
aS'/home/chen/Documents/.git/Mocap_SIG18_Data/training_data/User3/capture3/out6_training_dense_right.trc'
p636
aS'/home/chen/Documents/.git/Mocap_SIG18_Data/training_data/User3/capture3/out9_training_dense_left.trc'
p637
aS'/home/chen/Documents/.git/Mocap_SIG18_Data/training_data/User3/capture3/out3_training_dense_right.trc'
p638
aS'/home/chen/Documents/.git/Mocap_SIG18_Data/training_data/User3/capture3/out1_training_dense_right.trc'
p639
aS'/home/chen/Documents/.git/Mocap_SIG18_Data/training_data/User3/capture1/sequence.38_training_dense_left.trc'
p640
aS'/home/chen/Documents/.git/Mocap_SIG18_Data/training_data/User3/capture1/sequence.36_training_dense_left.trc'
p641
aS'/home/chen/Documents/.git/Mocap_SIG18_Data/training_data/User3/capture1/sequence.4_training_dense_right.trc'
p642
aS'/home/chen/Documents/.git/Mocap_SIG18_Data/training_data/User3/capture1/sequence.36_training_dense_right.trc'
p643
aS'/home/chen/Documents/.git/Mocap_SIG18_Data/training_data/User3/capture1/sequence.30_training_dense_left.trc'
p644
aS'/home/chen/Documents/.git/Mocap_SIG18_Data/training_data/User3/capture1/sequence.32_training_dense_right.trc'
p645
aS'/home/chen/Documents/.git/Mocap_SIG18_Data/training_data/User3/capture1/sequence.29_training_dense_right.trc'
p646
aS'/home/chen/Documents/.git/Mocap_SIG18_Data/training_data/User3/capture1/sequence.16_training_dense_left.trc'
p647
aS'/home/chen/Documents/.git/Mocap_SIG18_Data/training_data/User3/capture1/sequence.3_training_dense_right.trc'
p648
aS'/home/chen/Documents/.git/Mocap_SIG18_Data/training_data/User3/capture1/sequence.18_training_dense_right.trc'
p649
aS'/home/chen/Documents/.git/Mocap_SIG18_Data/training_data/User3/capture1/sequence.22_training_dense_left.trc'
p650
aS'/home/chen/Documents/.git/Mocap_SIG18_Data/training_data/User3/capture1/sequence.13_training_dense_right.trc'
p651
aS'/home/chen/Documents/.git/Mocap_SIG18_Data/training_data/User3/capture1/sequence.13_training_dense_left.trc'
p652
aS'/home/chen/Documents/.git/Mocap_SIG18_Data/training_data/User3/capture1/sequence.23_training_dense_right.trc'
p653
aS'/home/chen/Documents/.git/Mocap_SIG18_Data/training_data/User3/capture1/sequence.7_training_dense_left.trc'
p654
aS'/home/chen/Documents/.git/Mocap_SIG18_Data/training_data/User3/capture1/sequence.24_training_dense_left.trc'
p655
aS'/home/chen/Documents/.git/Mocap_SIG18_Data/training_data/User3/capture1/sequence.11_training_dense_left.trc'
p656
aS'/home/chen/Documents/.git/Mocap_SIG18_Data/training_data/User3/capture1/sequence.9_training_dense_right.trc'
p657
aS'/home/chen/Documents/.git/Mocap_SIG18_Data/training_data/User3/capture1/sequence.20_training_dense_left.trc'
p658
aS'/home/chen/Documents/.git/Mocap_SIG18_Data/training_data/User3/capture1/sequence.8_training_dense_right.trc'
p659
aS'/home/chen/Documents/.git/Mocap_SIG18_Data/training_data/User3/capture1/sequence.15_training_dense_left.trc'
p660
aS'/home/chen/Documents/.git/Mocap_SIG18_Data/training_data/User3/capture1/sequence.18_training_dense_left.trc'
p661
aS'/home/chen/Documents/.git/Mocap_SIG18_Data/training_data/User3/capture1/sequence.40_training_dense_right.trc'
p662
aS'/home/chen/Documents/.git/Mocap_SIG18_Data/training_data/User3/capture1/sequence.2_training_dense_left.trc'
p663
aS'/home/chen/Documents/.git/Mocap_SIG18_Data/training_data/User3/capture1/sequence.37_training_dense_left.trc'
p664
aS'/home/chen/Documents/.git/Mocap_SIG18_Data/training_data/User3/capture1/sequence.6_training_dense_left.trc'
p665
aS'/home/chen/Documents/.git/Mocap_SIG18_Data/training_data/User3/capture1/sequence.16_training_dense_right.trc'
p666
aS'/home/chen/Documents/.git/Mocap_SIG18_Data/training_data/User3/capture1/sequence.28_training_dense_left.trc'
p667
aS'/home/chen/Documents/.git/Mocap_SIG18_Data/training_data/User3/capture1/sequence.25_training_dense_right.trc'
p668
aS'/home/chen/Documents/.git/Mocap_SIG18_Data/training_data/User3/capture1/sequence.39_training_dense_left.trc'
p669
aS'/home/chen/Documents/.git/Mocap_SIG18_Data/training_data/User3/capture1/sequence.42_training_dense_right.trc'
p670
aS'/home/chen/Documents/.git/Mocap_SIG18_Data/training_data/User3/capture1/sequence.12_training_dense_right.trc'
p671
aS'/home/chen/Documents/.git/Mocap_SIG18_Data/training_data/User3/capture1/sequence.38_training_dense_right.trc'
p672
aS'/home/chen/Documents/.git/Mocap_SIG18_Data/training_data/User3/capture1/sequence.34_training_dense_right.trc'
p673
aS'/home/chen/Documents/.git/Mocap_SIG18_Data/training_data/User3/capture1/sequence.27_training_dense_left.trc'
p674
aS'/home/chen/Documents/.git/Mocap_SIG18_Data/training_data/User3/capture1/sequence.8_training_dense_left.trc'
p675
aS'/home/chen/Documents/.git/Mocap_SIG18_Data/training_data/User3/capture1/sequence.39_training_dense_right.trc'
p676
aS'/home/chen/Documents/.git/Mocap_SIG18_Data/training_data/User3/capture1/sequence.30_training_dense_right.trc'
p677
aS'/home/chen/Documents/.git/Mocap_SIG18_Data/training_data/User3/capture1/sequence.5_training_dense_left.trc'
p678
aS'/home/chen/Documents/.git/Mocap_SIG18_Data/training_data/User3/capture1/sequence.11_training_dense_right.trc'
p679
aS'/home/chen/Documents/.git/Mocap_SIG18_Data/training_data/User3/capture1/sequence.7_training_dense_right.trc'
p680
aS'/home/chen/Documents/.git/Mocap_SIG18_Data/training_data/User3/capture1/sequence.21_training_dense_left.trc'
p681
aS'/home/chen/Documents/.git/Mocap_SIG18_Data/training_data/User3/capture1/sequence.5_training_dense_right.trc'
p682
aS'/home/chen/Documents/.git/Mocap_SIG18_Data/training_data/User3/capture1/sequence.14_training_dense_right.trc'
p683
aS'/home/chen/Documents/.git/Mocap_SIG18_Data/training_data/User3/capture1/sequence.25_training_dense_left.trc'
p684
aS'/home/chen/Documents/.git/Mocap_SIG18_Data/training_data/User3/capture1/sequence.40_training_dense_left.trc'
p685
aS'/home/chen/Documents/.git/Mocap_SIG18_Data/training_data/User3/capture1/sequence.10_training_dense_left.trc'
p686
aS'/home/chen/Documents/.git/Mocap_SIG18_Data/training_data/User3/capture1/sequence.15_training_dense_right.trc'
p687
aS'/home/chen/Documents/.git/Mocap_SIG18_Data/training_data/User3/capture1/sequence.26_training_dense_right.trc'
p688
aS'/home/chen/Documents/.git/Mocap_SIG18_Data/training_data/User3/capture1/sequence.37_training_dense_right.trc'
p689
aS'/home/chen/Documents/.git/Mocap_SIG18_Data/training_data/User3/capture1/sequence.29_training_dense_left.trc'
p690
aS'/home/chen/Documents/.git/Mocap_SIG18_Data/training_data/User3/capture1/sequence.35_training_dense_left.trc'
p691
aS'/home/chen/Documents/.git/Mocap_SIG18_Data/training_data/User3/capture1/sequence.6_training_dense_right.trc'
p692
aS'/home/chen/Documents/.git/Mocap_SIG18_Data/training_data/User3/capture1/sequence.34_training_dense_left.trc'
p693
aS'/home/chen/Documents/.git/Mocap_SIG18_Data/training_data/User3/capture1/sequence.10_training_dense_right.trc'
p694
aS'/home/chen/Documents/.git/Mocap_SIG18_Data/training_data/User3/capture1/sequence.27_training_dense_right.trc'
p695
aS'/home/chen/Documents/.git/Mocap_SIG18_Data/training_data/User3/capture1/sequence.32_training_dense_left.trc'
p696
aS'/home/chen/Documents/.git/Mocap_SIG18_Data/training_data/User3/capture1/sequence.24_training_dense_right.trc'
p697
aS'/home/chen/Documents/.git/Mocap_SIG18_Data/training_data/User3/capture1/sequence.12_training_dense_left.trc'
p698
aS'/home/chen/Documents/.git/Mocap_SIG18_Data/training_data/User3/capture1/sequence.21_training_dense_right.trc'
p699
aS'/home/chen/Documents/.git/Mocap_SIG18_Data/training_data/User3/capture1/sequence.35_training_dense_right.trc'
p700
aS'/home/chen/Documents/.git/Mocap_SIG18_Data/training_data/User3/capture1/sequence.26_training_dense_left.trc'
p701
aS'/home/chen/Documents/.git/Mocap_SIG18_Data/training_data/User3/capture1/sequence.9_training_dense_left.trc'
p702
aS'/home/chen/Documents/.git/Mocap_SIG18_Data/training_data/User3/capture1/sequence.23_training_dense_left.trc'
p703
aS'/home/chen/Documents/.git/Mocap_SIG18_Data/training_data/User3/capture1/sequence.4_training_dense_left.trc'
p704
aS'/home/chen/Documents/.git/Mocap_SIG18_Data/training_data/User3/capture1/sequence.14_training_dense_left.trc'
p705
aS'/home/chen/Documents/.git/Mocap_SIG18_Data/training_data/User3/capture1/sequence.28_training_dense_right.trc'
p706
aS'/home/chen/Documents/.git/Mocap_SIG18_Data/training_data/User3/capture1/sequence.42_training_dense_left.trc'
p707
aS'/home/chen/Documents/.git/Mocap_SIG18_Data/training_data/User3/capture1/sequence.2_training_dense_right.trc'
p708
aS'/home/chen/Documents/.git/Mocap_SIG18_Data/training_data/User3/capture1/sequence.22_training_dense_right.trc'
p709
aS'/home/chen/Documents/.git/Mocap_SIG18_Data/training_data/User3/capture1/sequence.20_training_dense_right.trc'
p710
aS'/home/chen/Documents/.git/Mocap_SIG18_Data/training_data/User3/capture1/sequence.3_training_dense_left.trc'
p711
aS'/home/chen/Documents/.git/Mocap_SIG18_Data/training_data/User2/capture2/sequence.38_training_dense_left.trc'
p712
aS'/home/chen/Documents/.git/Mocap_SIG18_Data/training_data/User2/capture2/sequence.36_training_dense_left.trc'
p713
aS'/home/chen/Documents/.git/Mocap_SIG18_Data/training_data/User2/capture2/sequence.36_training_dense_right.trc'
p714
aS'/home/chen/Documents/.git/Mocap_SIG18_Data/training_data/User2/capture2/sequence.44_training_dense_left.trc'
p715
aS'/home/chen/Documents/.git/Mocap_SIG18_Data/training_data/User2/capture2/sequence.39.1_training_dense_right.trc'
p716
aS'/home/chen/Documents/.git/Mocap_SIG18_Data/training_data/User2/capture2/sequence.9_training_dense_right.trc'
p717
aS'/home/chen/Documents/.git/Mocap_SIG18_Data/training_data/User2/capture2/sequence.40_training_dense_right.trc'
p718
aS'/home/chen/Documents/.git/Mocap_SIG18_Data/training_data/User2/capture2/sequence.37_training_dense_left.trc'
p719
aS'/home/chen/Documents/.git/Mocap_SIG18_Data/training_data/User2/capture2/sequence.42_training_dense_right.trc'
p720
aS'/home/chen/Documents/.git/Mocap_SIG18_Data/training_data/User2/capture2/sequence.38_training_dense_right.trc'
p721
aS'/home/chen/Documents/.git/Mocap_SIG18_Data/training_data/User2/capture2/sequence.34_training_dense_right.trc'
p722
aS'/home/chen/Documents/.git/Mocap_SIG18_Data/training_data/User2/capture2/sequence.44_training_dense_right.trc'
p723
aS'/home/chen/Documents/.git/Mocap_SIG18_Data/training_data/User2/capture2/sequence.43_training_dense_left.trc'
p724
aS'/home/chen/Documents/.git/Mocap_SIG18_Data/training_data/User2/capture2/sequence.40_training_dense_left.trc'
p725
aS'/home/chen/Documents/.git/Mocap_SIG18_Data/training_data/User2/capture2/sequence.37_training_dense_right.trc'
p726
aS'/home/chen/Documents/.git/Mocap_SIG18_Data/training_data/User2/capture2/sequence.35_training_dense_left.trc'
p727
aS'/home/chen/Documents/.git/Mocap_SIG18_Data/training_data/User2/capture2/sequence.34_training_dense_left.trc'
p728
aS'/home/chen/Documents/.git/Mocap_SIG18_Data/training_data/User2/capture2/sequence.39.1_training_dense_left.trc'
p729
aS'/home/chen/Documents/.git/Mocap_SIG18_Data/training_data/User2/capture2/sequence.35_training_dense_right.trc'
p730
aS'/home/chen/Documents/.git/Mocap_SIG18_Data/training_data/User2/capture2/sequence.9_training_dense_left.trc'
p731
aS'/home/chen/Documents/.git/Mocap_SIG18_Data/training_data/User2/capture2/sequence.43_training_dense_right.trc'
p732
aS'/home/chen/Documents/.git/Mocap_SIG18_Data/training_data/User2/capture2/sequence.42_training_dense_left.trc'
p733
aS'/home/chen/Documents/.git/Mocap_SIG18_Data/training_data/User2/capture2/sequence.41_training_dense_left.trc'
p734
aS'/home/chen/Documents/.git/Mocap_SIG18_Data/training_data/User2/capture2/sequence.41_training_dense_right.trc'
p735
aS'/home/chen/Documents/.git/Mocap_SIG18_Data/training_data/User2/capture4/sequence.36_training_dense_left.trc'
p736
aS'/home/chen/Documents/.git/Mocap_SIG18_Data/training_data/User2/capture4/sequence.4_training_dense_right.trc'
p737
aS'/home/chen/Documents/.git/Mocap_SIG18_Data/training_data/User2/capture4/sequence.36_training_dense_right.trc'
p738
aS'/home/chen/Documents/.git/Mocap_SIG18_Data/training_data/User2/capture4/sequence.30_training_dense_left.trc'
p739
aS'/home/chen/Documents/.git/Mocap_SIG18_Data/training_data/User2/capture4/sequence.32_training_dense_right.trc'
p740
aS'/home/chen/Documents/.git/Mocap_SIG18_Data/training_data/User2/capture4/sequence.31_training_dense_left.trc'
p741
aS'/home/chen/Documents/.git/Mocap_SIG18_Data/training_data/User2/capture4/sequence.33_training_dense_left.trc'
p742
aS'/home/chen/Documents/.git/Mocap_SIG18_Data/training_data/User2/capture4/sequence.29_training_dense_right.trc'
p743
aS'/home/chen/Documents/.git/Mocap_SIG18_Data/training_data/User2/capture4/sequence.16_training_dense_left.trc'
p744
aS'/home/chen/Documents/.git/Mocap_SIG18_Data/training_data/User2/capture4/sequence.3_training_dense_right.trc'
p745
aS'/home/chen/Documents/.git/Mocap_SIG18_Data/training_data/User2/capture4/sequence.1_training_dense_right.trc'
p746
aS'/home/chen/Documents/.git/Mocap_SIG18_Data/training_data/User2/capture4/sequence.33_training_dense_right.trc'
p747
aS'/home/chen/Documents/.git/Mocap_SIG18_Data/training_data/User2/capture4/sequence.18_training_dense_right.trc'
p748
aS'/home/chen/Documents/.git/Mocap_SIG18_Data/training_data/User2/capture4/sequence.22_training_dense_left.trc'
p749
aS'/home/chen/Documents/.git/Mocap_SIG18_Data/training_data/User2/capture4/sequence.13_training_dense_right.trc'
p750
aS'/home/chen/Documents/.git/Mocap_SIG18_Data/training_data/User2/capture4/sequence.13_training_dense_left.trc'
p751
aS'/home/chen/Documents/.git/Mocap_SIG18_Data/training_data/User2/capture4/sequence.23_training_dense_right.trc'
p752
aS'/home/chen/Documents/.git/Mocap_SIG18_Data/training_data/User2/capture4/sequence.7_training_dense_left.trc'
p753
aS'/home/chen/Documents/.git/Mocap_SIG18_Data/training_data/User2/capture4/sequence.24_training_dense_left.trc'
p754
aS'/home/chen/Documents/.git/Mocap_SIG18_Data/training_data/User2/capture4/sequence.31_training_dense_right.trc'
p755
aS'/home/chen/Documents/.git/Mocap_SIG18_Data/training_data/User2/capture4/sequence.11_training_dense_left.trc'
p756
aS'/home/chen/Documents/.git/Mocap_SIG18_Data/training_data/User2/capture4/sequence.9_training_dense_right.trc'
p757
aS'/home/chen/Documents/.git/Mocap_SIG18_Data/training_data/User2/capture4/sequence.20_training_dense_left.trc'
p758
aS'/home/chen/Documents/.git/Mocap_SIG18_Data/training_data/User2/capture4/sequence.8_training_dense_right.trc'
p759
aS'/home/chen/Documents/.git/Mocap_SIG18_Data/training_data/User2/capture4/sequence.15_training_dense_left.trc'
p760
aS'/home/chen/Documents/.git/Mocap_SIG18_Data/training_data/User2/capture4/sequence.18_training_dense_left.trc'
p761
aS'/home/chen/Documents/.git/Mocap_SIG18_Data/training_data/User2/capture4/sequence.2_training_dense_left.trc'
p762
aS'/home/chen/Documents/.git/Mocap_SIG18_Data/training_data/User2/capture4/sequence.37_training_dense_left.trc'
p763
aS'/home/chen/Documents/.git/Mocap_SIG18_Data/training_data/User2/capture4/sequence.6_training_dense_left.trc'
p764
aS'/home/chen/Documents/.git/Mocap_SIG18_Data/training_data/User2/capture4/sequence.16_training_dense_right.trc'
p765
aS'/home/chen/Documents/.git/Mocap_SIG18_Data/training_data/User2/capture4/sequence.28_training_dense_left.trc'
p766
aS'/home/chen/Documents/.git/Mocap_SIG18_Data/training_data/User2/capture4/sequence.25_training_dense_right.trc'
p767
aS'/home/chen/Documents/.git/Mocap_SIG18_Data/training_data/User2/capture4/sequence.12_training_dense_right.trc'
p768
aS'/home/chen/Documents/.git/Mocap_SIG18_Data/training_data/User2/capture4/sequence.34_training_dense_right.trc'
p769
aS'/home/chen/Documents/.git/Mocap_SIG18_Data/training_data/User2/capture4/sequence.27_training_dense_left.trc'
p770
aS'/home/chen/Documents/.git/Mocap_SIG18_Data/training_data/User2/capture4/sequence.8_training_dense_left.trc'
p771
aS'/home/chen/Documents/.git/Mocap_SIG18_Data/training_data/User2/capture4/sequence.30_training_dense_right.trc'
p772
aS'/home/chen/Documents/.git/Mocap_SIG18_Data/training_data/User2/capture4/sequence.5_training_dense_left.trc'
p773
aS'/home/chen/Documents/.git/Mocap_SIG18_Data/training_data/User2/capture4/sequence.11_training_dense_right.trc'
p774
aS'/home/chen/Documents/.git/Mocap_SIG18_Data/training_data/User2/capture4/sequence.7_training_dense_right.trc'
p775
aS'/home/chen/Documents/.git/Mocap_SIG18_Data/training_data/User2/capture4/sequence.21_training_dense_left.trc'
p776
aS'/home/chen/Documents/.git/Mocap_SIG18_Data/training_data/User2/capture4/sequence.5_training_dense_right.trc'
p777
aS'/home/chen/Documents/.git/Mocap_SIG18_Data/training_data/User2/capture4/sequence.14_training_dense_right.trc'
p778
aS'/home/chen/Documents/.git/Mocap_SIG18_Data/training_data/User2/capture4/sequence.25_training_dense_left.trc'
p779
aS'/home/chen/Documents/.git/Mocap_SIG18_Data/training_data/User2/capture4/sequence.10_training_dense_left.trc'
p780
aS'/home/chen/Documents/.git/Mocap_SIG18_Data/training_data/User2/capture4/sequence.15_training_dense_right.trc'
p781
aS'/home/chen/Documents/.git/Mocap_SIG18_Data/training_data/User2/capture4/sequence.26_training_dense_right.trc'
p782
aS'/home/chen/Documents/.git/Mocap_SIG18_Data/training_data/User2/capture4/sequence.37_training_dense_right.trc'
p783
aS'/home/chen/Documents/.git/Mocap_SIG18_Data/training_data/User2/capture4/sequence.29_training_dense_left.trc'
p784
aS'/home/chen/Documents/.git/Mocap_SIG18_Data/training_data/User2/capture4/sequence.35_training_dense_left.trc'
p785
aS'/home/chen/Documents/.git/Mocap_SIG18_Data/training_data/User2/capture4/sequence.6_training_dense_right.trc'
p786
aS'/home/chen/Documents/.git/Mocap_SIG18_Data/training_data/User2/capture4/sequence.34_training_dense_left.trc'
p787
aS'/home/chen/Documents/.git/Mocap_SIG18_Data/training_data/User2/capture4/sequence.10_training_dense_right.trc'
p788
aS'/home/chen/Documents/.git/Mocap_SIG18_Data/training_data/User2/capture4/sequence.27_training_dense_right.trc'
p789
aS'/home/chen/Documents/.git/Mocap_SIG18_Data/training_data/User2/capture4/sequence.32_training_dense_left.trc'
p790
aS'/home/chen/Documents/.git/Mocap_SIG18_Data/training_data/User2/capture4/sequence.24_training_dense_right.trc'
p791
aS'/home/chen/Documents/.git/Mocap_SIG18_Data/training_data/User2/capture4/sequence.12_training_dense_left.trc'
p792
aS'/home/chen/Documents/.git/Mocap_SIG18_Data/training_data/User2/capture4/sequence.21_training_dense_right.trc'
p793
aS'/home/chen/Documents/.git/Mocap_SIG18_Data/training_data/User2/capture4/sequence.35_training_dense_right.trc'
p794
aS'/home/chen/Documents/.git/Mocap_SIG18_Data/training_data/User2/capture4/sequence.17_training_dense_left.trc'
p795
aS'/home/chen/Documents/.git/Mocap_SIG18_Data/training_data/User2/capture4/sequence.26_training_dense_left.trc'
p796
aS'/home/chen/Documents/.git/Mocap_SIG18_Data/training_data/User2/capture4/sequence.9_training_dense_left.trc'
p797
aS'/home/chen/Documents/.git/Mocap_SIG18_Data/training_data/User2/capture4/sequence.23_training_dense_left.trc'
p798
aS'/home/chen/Documents/.git/Mocap_SIG18_Data/training_data/User2/capture4/sequence.4_training_dense_left.trc'
p799
aS'/home/chen/Documents/.git/Mocap_SIG18_Data/training_data/User2/capture4/sequence.14_training_dense_left.trc'
p800
aS'/home/chen/Documents/.git/Mocap_SIG18_Data/training_data/User2/capture4/sequence.19_training_dense_left.trc'
p801
aS'/home/chen/Documents/.git/Mocap_SIG18_Data/training_data/User2/capture4/sequence.28_training_dense_right.trc'
p802
aS'/home/chen/Documents/.git/Mocap_SIG18_Data/training_data/User2/capture4/sequence.19_training_dense_right.trc'
p803
aS'/home/chen/Documents/.git/Mocap_SIG18_Data/training_data/User2/capture4/sequence.17_training_dense_right.trc'
p804
aS'/home/chen/Documents/.git/Mocap_SIG18_Data/training_data/User2/capture4/sequence.2_training_dense_right.trc'
p805
aS'/home/chen/Documents/.git/Mocap_SIG18_Data/training_data/User2/capture4/sequence.22_training_dense_right.trc'
p806
aS'/home/chen/Documents/.git/Mocap_SIG18_Data/training_data/User2/capture4/sequence.20_training_dense_right.trc'
p807
aS'/home/chen/Documents/.git/Mocap_SIG18_Data/training_data/User2/capture4/sequence.3_training_dense_left.trc'
p808
aS'/home/chen/Documents/.git/Mocap_SIG18_Data/training_data/User2/capture4/sequence.1_training_dense_left.trc'
p809
aS'/home/chen/Documents/.git/Mocap_SIG18_Data/training_data/User2/capture3/sequence.4_training_dense_right.trc'
p810
aS'/home/chen/Documents/.git/Mocap_SIG18_Data/training_data/User2/capture3/sequence.16_training_dense_left.trc'
p811
aS'/home/chen/Documents/.git/Mocap_SIG18_Data/training_data/User2/capture3/sequence.3_training_dense_right.trc'
p812
aS'/home/chen/Documents/.git/Mocap_SIG18_Data/training_data/User2/capture3/sequence.1_training_dense_right.trc'
p813
aS'/home/chen/Documents/.git/Mocap_SIG18_Data/training_data/User2/capture3/sequence.13_training_dense_right.trc'
p814
aS'/home/chen/Documents/.git/Mocap_SIG18_Data/training_data/User2/capture3/sequence.13_training_dense_left.trc'
p815
aS'/home/chen/Documents/.git/Mocap_SIG18_Data/training_data/User2/capture3/sequence.7_training_dense_left.trc'
p816
aS'/home/chen/Documents/.git/Mocap_SIG18_Data/training_data/User2/capture3/sequence.11_training_dense_left.trc'
p817
aS'/home/chen/Documents/.git/Mocap_SIG18_Data/training_data/User2/capture3/sequence.9_training_dense_right.trc'
p818
aS'/home/chen/Documents/.git/Mocap_SIG18_Data/training_data/User2/capture3/sequence.8_training_dense_right.trc'
p819
aS'/home/chen/Documents/.git/Mocap_SIG18_Data/training_data/User2/capture3/sequence.15_training_dense_left.trc'
p820
aS'/home/chen/Documents/.git/Mocap_SIG18_Data/training_data/User2/capture3/sequence.2_training_dense_left.trc'
p821
aS'/home/chen/Documents/.git/Mocap_SIG18_Data/training_data/User2/capture3/sequence.6_training_dense_left.trc'
p822
aS'/home/chen/Documents/.git/Mocap_SIG18_Data/training_data/User2/capture3/sequence.16_training_dense_right.trc'
p823
aS'/home/chen/Documents/.git/Mocap_SIG18_Data/training_data/User2/capture3/sequence.12_training_dense_right.trc'
p824
aS'/home/chen/Documents/.git/Mocap_SIG18_Data/training_data/User2/capture3/sequence.8_training_dense_left.trc'
p825
aS'/home/chen/Documents/.git/Mocap_SIG18_Data/training_data/User2/capture3/sequence.5_training_dense_left.trc'
p826
aS'/home/chen/Documents/.git/Mocap_SIG18_Data/training_data/User2/capture3/sequence.11_training_dense_right.trc'
p827
aS'/home/chen/Documents/.git/Mocap_SIG18_Data/training_data/User2/capture3/sequence.7_training_dense_right.trc'
p828
aS'/home/chen/Documents/.git/Mocap_SIG18_Data/training_data/User2/capture3/sequence.5_training_dense_right.trc'
p829
aS'/home/chen/Documents/.git/Mocap_SIG18_Data/training_data/User2/capture3/sequence.14_training_dense_right.trc'
p830
aS'/home/chen/Documents/.git/Mocap_SIG18_Data/training_data/User2/capture3/sequence.10_training_dense_left.trc'
p831
aS'/home/chen/Documents/.git/Mocap_SIG18_Data/training_data/User2/capture3/sequence.15_training_dense_right.trc'
p832
aS'/home/chen/Documents/.git/Mocap_SIG18_Data/training_data/User2/capture3/sequence.6_training_dense_right.trc'
p833
aS'/home/chen/Documents/.git/Mocap_SIG18_Data/training_data/User2/capture3/sequence.10_training_dense_right.trc'
p834
aS'/home/chen/Documents/.git/Mocap_SIG18_Data/training_data/User2/capture3/sequence.12_training_dense_left.trc'
p835
aS'/home/chen/Documents/.git/Mocap_SIG18_Data/training_data/User2/capture3/sequence.17_training_dense_left.trc'
p836
aS'/home/chen/Documents/.git/Mocap_SIG18_Data/training_data/User2/capture3/sequence.9_training_dense_left.trc'
p837
aS'/home/chen/Documents/.git/Mocap_SIG18_Data/training_data/User2/capture3/sequence.4_training_dense_left.trc'
p838
aS'/home/chen/Documents/.git/Mocap_SIG18_Data/training_data/User2/capture3/sequence.14_training_dense_left.trc'
p839
aS'/home/chen/Documents/.git/Mocap_SIG18_Data/training_data/User2/capture3/sequence.17_training_dense_right.trc'
p840
aS'/home/chen/Documents/.git/Mocap_SIG18_Data/training_data/User2/capture3/sequence.2_training_dense_right.trc'
p841
aS'/home/chen/Documents/.git/Mocap_SIG18_Data/training_data/User2/capture3/sequence.3_training_dense_left.trc'
p842
aS'/home/chen/Documents/.git/Mocap_SIG18_Data/training_data/User2/capture3/sequence.1_training_dense_left.trc'
p843
aS'/home/chen/Documents/.git/Mocap_SIG18_Data/training_data/User2/capture1/sequence.38_training_dense_left.trc'
p844
aS'/home/chen/Documents/.git/Mocap_SIG18_Data/training_data/User2/capture1/sequence.36_training_dense_left.trc'
p845
aS'/home/chen/Documents/.git/Mocap_SIG18_Data/training_data/User2/capture1/sequence.4_training_dense_right.trc'
p846
aS'/home/chen/Documents/.git/Mocap_SIG18_Data/training_data/User2/capture1/sequence.36_training_dense_right.trc'
p847
aS'/home/chen/Documents/.git/Mocap_SIG18_Data/training_data/User2/capture1/sequence.30_training_dense_left.trc'
p848
aS'/home/chen/Documents/.git/Mocap_SIG18_Data/training_data/User2/capture1/sequence.32_training_dense_right.trc'
p849
aS'/home/chen/Documents/.git/Mocap_SIG18_Data/training_data/User2/capture1/sequence.31_training_dense_left.trc'
p850
aS'/home/chen/Documents/.git/Mocap_SIG18_Data/training_data/User2/capture1/sequence.33_training_dense_left.trc'
p851
aS'/home/chen/Documents/.git/Mocap_SIG18_Data/training_data/User2/capture1/sequence.29_training_dense_right.trc'
p852
aS'/home/chen/Documents/.git/Mocap_SIG18_Data/training_data/User2/capture1/sequence.16_training_dense_left.trc'
p853
aS'/home/chen/Documents/.git/Mocap_SIG18_Data/training_data/User2/capture1/sequence.3_training_dense_right.trc'
p854
aS'/home/chen/Documents/.git/Mocap_SIG18_Data/training_data/User2/capture1/sequence.1_training_dense_right.trc'
p855
aS'/home/chen/Documents/.git/Mocap_SIG18_Data/training_data/User2/capture1/sequence.33_training_dense_right.trc'
p856
aS'/home/chen/Documents/.git/Mocap_SIG18_Data/training_data/User2/capture1/sequence.18_training_dense_right.trc'
p857
aS'/home/chen/Documents/.git/Mocap_SIG18_Data/training_data/User2/capture1/sequence.22_training_dense_left.trc'
p858
aS'/home/chen/Documents/.git/Mocap_SIG18_Data/training_data/User2/capture1/sequence.13_training_dense_right.trc'
p859
aS'/home/chen/Documents/.git/Mocap_SIG18_Data/training_data/User2/capture1/sequence.13_training_dense_left.trc'
p860
aS'/home/chen/Documents/.git/Mocap_SIG18_Data/training_data/User2/capture1/sequence.23_training_dense_right.trc'
p861
aS'/home/chen/Documents/.git/Mocap_SIG18_Data/training_data/User2/capture1/sequence.7_training_dense_left.trc'
p862
aS'/home/chen/Documents/.git/Mocap_SIG18_Data/training_data/User2/capture1/sequence.24_training_dense_left.trc'
p863
aS'/home/chen/Documents/.git/Mocap_SIG18_Data/training_data/User2/capture1/sequence.31_training_dense_right.trc'
p864
aS'/home/chen/Documents/.git/Mocap_SIG18_Data/training_data/User2/capture1/sequence.11_training_dense_left.trc'
p865
aS'/home/chen/Documents/.git/Mocap_SIG18_Data/training_data/User2/capture1/sequence.9_training_dense_right.trc'
p866
aS'/home/chen/Documents/.git/Mocap_SIG18_Data/training_data/User2/capture1/sequence.20_training_dense_left.trc'
p867
aS'/home/chen/Documents/.git/Mocap_SIG18_Data/training_data/User2/capture1/sequence.8_training_dense_right.trc'
p868
aS'/home/chen/Documents/.git/Mocap_SIG18_Data/training_data/User2/capture1/sequence.15_training_dense_left.trc'
p869
aS'/home/chen/Documents/.git/Mocap_SIG18_Data/training_data/User2/capture1/sequence.18_training_dense_left.trc'
p870
aS'/home/chen/Documents/.git/Mocap_SIG18_Data/training_data/User2/capture1/sequence.2_training_dense_left.trc'
p871
aS'/home/chen/Documents/.git/Mocap_SIG18_Data/training_data/User2/capture1/sequence.37_training_dense_left.trc'
p872
aS'/home/chen/Documents/.git/Mocap_SIG18_Data/training_data/User2/capture1/sequence.16_training_dense_right.trc'
p873
aS'/home/chen/Documents/.git/Mocap_SIG18_Data/training_data/User2/capture1/sequence.28_training_dense_left.trc'
p874
aS'/home/chen/Documents/.git/Mocap_SIG18_Data/training_data/User2/capture1/sequence.25_training_dense_right.trc'
p875
aS'/home/chen/Documents/.git/Mocap_SIG18_Data/training_data/User2/capture1/sequence.12_training_dense_right.trc'
p876
aS'/home/chen/Documents/.git/Mocap_SIG18_Data/training_data/User2/capture1/sequence.38_training_dense_right.trc'
p877
aS'/home/chen/Documents/.git/Mocap_SIG18_Data/training_data/User2/capture1/sequence.34_training_dense_right.trc'
p878
aS'/home/chen/Documents/.git/Mocap_SIG18_Data/training_data/User2/capture1/sequence.27_training_dense_left.trc'
p879
aS'/home/chen/Documents/.git/Mocap_SIG18_Data/training_data/User2/capture1/sequence.8_training_dense_left.trc'
p880
aS'/home/chen/Documents/.git/Mocap_SIG18_Data/training_data/User2/capture1/sequence.30_training_dense_right.trc'
p881
aS'/home/chen/Documents/.git/Mocap_SIG18_Data/training_data/User2/capture1/sequence.5_training_dense_left.trc'
p882
aS'/home/chen/Documents/.git/Mocap_SIG18_Data/training_data/User2/capture1/sequence.11_training_dense_right.trc'
p883
aS'/home/chen/Documents/.git/Mocap_SIG18_Data/training_data/User2/capture1/sequence.7_training_dense_right.trc'
p884
aS'/home/chen/Documents/.git/Mocap_SIG18_Data/training_data/User2/capture1/sequence.21_training_dense_left.trc'
p885
aS'/home/chen/Documents/.git/Mocap_SIG18_Data/training_data/User2/capture1/sequence.5_training_dense_right.trc'
p886
aS'/home/chen/Documents/.git/Mocap_SIG18_Data/training_data/User2/capture1/sequence.14_training_dense_right.trc'
p887
aS'/home/chen/Documents/.git/Mocap_SIG18_Data/training_data/User2/capture1/sequence.25_training_dense_left.trc'
p888
aS'/home/chen/Documents/.git/Mocap_SIG18_Data/training_data/User2/capture1/sequence.10_training_dense_left.trc'
p889
aS'/home/chen/Documents/.git/Mocap_SIG18_Data/training_data/User2/capture1/sequence.15_training_dense_right.trc'
p890
aS'/home/chen/Documents/.git/Mocap_SIG18_Data/training_data/User2/capture1/sequence.26_training_dense_right.trc'
p891
aS'/home/chen/Documents/.git/Mocap_SIG18_Data/training_data/User2/capture1/sequence.37_training_dense_right.trc'
p892
aS'/home/chen/Documents/.git/Mocap_SIG18_Data/training_data/User2/capture1/sequence.29_training_dense_left.trc'
p893
aS'/home/chen/Documents/.git/Mocap_SIG18_Data/training_data/User2/capture1/sequence.35_training_dense_left.trc'
p894
aS'/home/chen/Documents/.git/Mocap_SIG18_Data/training_data/User2/capture1/sequence.34_training_dense_left.trc'
p895
aS'/home/chen/Documents/.git/Mocap_SIG18_Data/training_data/User2/capture1/sequence.10_training_dense_right.trc'
p896
aS'/home/chen/Documents/.git/Mocap_SIG18_Data/training_data/User2/capture1/sequence.27_training_dense_right.trc'
p897
aS'/home/chen/Documents/.git/Mocap_SIG18_Data/training_data/User2/capture1/sequence.32_training_dense_left.trc'
p898
aS'/home/chen/Documents/.git/Mocap_SIG18_Data/training_data/User2/capture1/sequence.24_training_dense_right.trc'
p899
aS'/home/chen/Documents/.git/Mocap_SIG18_Data/training_data/User2/capture1/sequence.12_training_dense_left.trc'
p900
aS'/home/chen/Documents/.git/Mocap_SIG18_Data/training_data/User2/capture1/sequence.21_training_dense_right.trc'
p901
aS'/home/chen/Documents/.git/Mocap_SIG18_Data/training_data/User2/capture1/sequence.35_training_dense_right.trc'
p902
aS'/home/chen/Documents/.git/Mocap_SIG18_Data/training_data/User2/capture1/sequence.17_training_dense_left.trc'
p903
aS'/home/chen/Documents/.git/Mocap_SIG18_Data/training_data/User2/capture1/sequence.26_training_dense_left.trc'
p904
aS'/home/chen/Documents/.git/Mocap_SIG18_Data/training_data/User2/capture1/sequence.9_training_dense_left.trc'
p905
aS'/home/chen/Documents/.git/Mocap_SIG18_Data/training_data/User2/capture1/sequence.23_training_dense_left.trc'
p906
aS'/home/chen/Documents/.git/Mocap_SIG18_Data/training_data/User2/capture1/sequence.4_training_dense_left.trc'
p907
aS'/home/chen/Documents/.git/Mocap_SIG18_Data/training_data/User2/capture1/sequence.14_training_dense_left.trc'
p908
aS'/home/chen/Documents/.git/Mocap_SIG18_Data/training_data/User2/capture1/sequence.19_training_dense_left.trc'
p909
aS'/home/chen/Documents/.git/Mocap_SIG18_Data/training_data/User2/capture1/sequence.28_training_dense_right.trc'
p910
aS'/home/chen/Documents/.git/Mocap_SIG18_Data/training_data/User2/capture1/sequence.19_training_dense_right.trc'
p911
aS'/home/chen/Documents/.git/Mocap_SIG18_Data/training_data/User2/capture1/sequence.17_training_dense_right.trc'
p912
aS'/home/chen/Documents/.git/Mocap_SIG18_Data/training_data/User2/capture1/sequence.2_training_dense_right.trc'
p913
aS'/home/chen/Documents/.git/Mocap_SIG18_Data/training_data/User2/capture1/sequence.22_training_dense_right.trc'
p914
aS'/home/chen/Documents/.git/Mocap_SIG18_Data/training_data/User2/capture1/sequence.20_training_dense_right.trc'
p915
aS'/home/chen/Documents/.git/Mocap_SIG18_Data/training_data/User2/capture1/sequence.3_training_dense_left.trc'
p916
aS'/home/chen/Documents/.git/Mocap_SIG18_Data/training_data/User2/capture1/sequence.1_training_dense_left.trc'
p917
asS'address'
p918
S'/home/chen/Documents/.git/Mocap_SIG18_Data/training_data'
p919
sb.